
object_orientation.elf:     file format elf32-avr

Sections:
Idx Name          Size      VMA       LMA       File off  Algn
  0 .text         00002e96  00000000  00000000  00000094  2**1
                  CONTENTS, ALLOC, LOAD, READONLY, CODE
  1 .data         00000008  00800060  00002e96  00002f2a  2**0
                  CONTENTS, ALLOC, LOAD, DATA
  2 .bss          00000038  00800068  00800068  00002f32  2**0
                  ALLOC
  3 .comment      00000030  00000000  00000000  00002f32  2**0
                  CONTENTS, READONLY
  4 .note.gnu.avr.deviceinfo 0000003c  00000000  00000000  00002f64  2**2
                  CONTENTS, READONLY
  5 .debug_aranges 00000188  00000000  00000000  00002fa0  2**0
                  CONTENTS, READONLY, DEBUGGING
  6 .debug_info   00001eeb  00000000  00000000  00003128  2**0
                  CONTENTS, READONLY, DEBUGGING
  7 .debug_abbrev 00000a9e  00000000  00000000  00005013  2**0
                  CONTENTS, READONLY, DEBUGGING
  8 .debug_line   00000f00  00000000  00000000  00005ab1  2**0
                  CONTENTS, READONLY, DEBUGGING
  9 .debug_frame  00000604  00000000  00000000  000069b4  2**2
                  CONTENTS, READONLY, DEBUGGING
 10 .debug_str    00000754  00000000  00000000  00006fb8  2**0
                  CONTENTS, READONLY, DEBUGGING
 11 .debug_loc    00002652  00000000  00000000  0000770c  2**0
                  CONTENTS, READONLY, DEBUGGING
 12 .debug_ranges 00000148  00000000  00000000  00009d5e  2**0
                  CONTENTS, READONLY, DEBUGGING

Disassembly of section .text:

00000000 <__vectors>:
       0:	0c 94 5f 00 	jmp	0xbe	; 0xbe <__ctors_end>
       4:	0c 94 7c 00 	jmp	0xf8	; 0xf8 <__bad_interrupt>
       8:	0c 94 7c 00 	jmp	0xf8	; 0xf8 <__bad_interrupt>
       c:	0c 94 7c 00 	jmp	0xf8	; 0xf8 <__bad_interrupt>
      10:	0c 94 7c 00 	jmp	0xf8	; 0xf8 <__bad_interrupt>
      14:	0c 94 7c 00 	jmp	0xf8	; 0xf8 <__bad_interrupt>
      18:	0c 94 7c 00 	jmp	0xf8	; 0xf8 <__bad_interrupt>
      1c:	0c 94 7c 00 	jmp	0xf8	; 0xf8 <__bad_interrupt>
      20:	0c 94 7c 00 	jmp	0xf8	; 0xf8 <__bad_interrupt>
      24:	0c 94 aa 12 	jmp	0x2554	; 0x2554 <__vector_9>
      28:	0c 94 7c 00 	jmp	0xf8	; 0xf8 <__bad_interrupt>
      2c:	0c 94 a9 13 	jmp	0x2752	; 0x2752 <__vector_11>
      30:	0c 94 7c 00 	jmp	0xf8	; 0xf8 <__bad_interrupt>
      34:	0c 94 7c 00 	jmp	0xf8	; 0xf8 <__bad_interrupt>
      38:	0c 94 7c 00 	jmp	0xf8	; 0xf8 <__bad_interrupt>
      3c:	0c 94 7c 00 	jmp	0xf8	; 0xf8 <__bad_interrupt>
      40:	0c 94 7c 00 	jmp	0xf8	; 0xf8 <__bad_interrupt>
      44:	0c 94 7c 00 	jmp	0xf8	; 0xf8 <__bad_interrupt>
      48:	0c 94 7c 00 	jmp	0xf8	; 0xf8 <__bad_interrupt>
      4c:	0c 94 7c 00 	jmp	0xf8	; 0xf8 <__bad_interrupt>
      50:	0c 94 7c 00 	jmp	0xf8	; 0xf8 <__bad_interrupt>
      54:	03 6e       	ori	r16, 0xE3	; 227
      56:	db 36       	cpi	r29, 0x6B	; 107
      58:	3d 9a       	sbi	0x07, 5	; 7
      5a:	99 99       	sbic	0x13, 1	; 19
      5c:	99 3d       	cpi	r25, 0xD9	; 217
      5e:	ab aa       	std	Y+51, r10	; 0x33
      60:	aa 2a       	or	r10, r26
      62:	3e 00       	.word	0x003e	; ????
      64:	00 00       	nop
      66:	80 3f       	cpi	r24, 0xF0	; 240
      68:	08 4a       	sbci	r16, 0xA8	; 168
      6a:	d7 3b       	cpi	r29, 0xB7	; 183
      6c:	3b ce       	rjmp	.-906    	; 0xfffffce4 <__eeprom_end+0xff7efce4>
      6e:	01 6e       	ori	r16, 0xE1	; 225
      70:	84 bc       	out	0x24, r8	; 36
      72:	bf fd       	.word	0xfdbf	; ????
      74:	c1 2f       	mov	r28, r17
      76:	3d 6c       	ori	r19, 0xCD	; 205
      78:	74 31       	cpi	r23, 0x14	; 20
      7a:	9a bd       	out	0x2a, r25	; 42
      7c:	56 83       	std	Z+6, r21	; 0x06
      7e:	3d da       	rcall	.-2950   	; 0xfffff4fa <__eeprom_end+0xff7ef4fa>
      80:	3d 00       	.word	0x003d	; ????
      82:	c7 7f       	andi	r28, 0xF7	; 247
      84:	11 be       	out	0x31, r1	; 49
      86:	d9 e4       	ldi	r29, 0x49	; 73
      88:	bb 4c       	sbci	r27, 0xCB	; 203
      8a:	3e 91       	ld	r19, -X
      8c:	6b aa       	std	Y+51, r6	; 0x33
      8e:	aa be       	out	0x3a, r10	; 58
      90:	00 00       	nop
      92:	00 80       	ld	r0, Z
      94:	3f 07       	cpc	r19, r31
      96:	2c 7a       	andi	r18, 0xAC	; 172
      98:	a5 ba       	out	0x15, r10	; 21
      9a:	6c c5       	rjmp	.+2776   	; 0xb74 <MahonyAHRSupdateIMU+0x6f6>
      9c:	90 da       	rcall	.-2784   	; 0xfffff5be <__eeprom_end+0xff7ef5be>
      9e:	3b 93       	.word	0x933b	; ????
      a0:	65 fc       	sbrc	r6, 5
      a2:	8b bc       	out	0x2b, r8	; 43
      a4:	53 f8       	bld	r5, 3
      a6:	10 fd       	sbrc	r17, 0
      a8:	3c 56       	subi	r19, 0x6C	; 108
      aa:	92 83       	std	Z+2, r25	; 0x02
      ac:	4d bd       	out	0x2d, r20	; 45
      ae:	87 9d       	mul	r24, r7
      b0:	3a b6       	in	r3, 0x3a	; 58
      b2:	3d cb       	rjmp	.-2438   	; 0xfffff72e <__eeprom_end+0xff7ef72e>
      b4:	c9 bf       	out	0x39, r28	; 57
      b6:	5b be       	out	0x3b, r5	; 59
      b8:	73 da       	rcall	.-2842   	; 0xfffff5a0 <__eeprom_end+0xff7ef5a0>
      ba:	0f c9       	rjmp	.-3554   	; 0xfffff2da <__eeprom_end+0xff7ef2da>
      bc:	3f 00       	.word	0x003f	; ????

000000be <__ctors_end>:
      be:	11 24       	eor	r1, r1
      c0:	1f be       	out	0x3f, r1	; 63
      c2:	cf e5       	ldi	r28, 0x5F	; 95
      c4:	d4 e0       	ldi	r29, 0x04	; 4
      c6:	de bf       	out	0x3e, r29	; 62
      c8:	cd bf       	out	0x3d, r28	; 61

000000ca <__do_copy_data>:
      ca:	10 e0       	ldi	r17, 0x00	; 0
      cc:	a0 e6       	ldi	r26, 0x60	; 96
      ce:	b0 e0       	ldi	r27, 0x00	; 0
      d0:	e6 e9       	ldi	r30, 0x96	; 150
      d2:	fe e2       	ldi	r31, 0x2E	; 46
      d4:	02 c0       	rjmp	.+4      	; 0xda <__do_copy_data+0x10>
      d6:	05 90       	lpm	r0, Z+
      d8:	0d 92       	st	X+, r0
      da:	a8 36       	cpi	r26, 0x68	; 104
      dc:	b1 07       	cpc	r27, r17
      de:	d9 f7       	brne	.-10     	; 0xd6 <__do_copy_data+0xc>

000000e0 <__do_clear_bss>:
      e0:	20 e0       	ldi	r18, 0x00	; 0
      e2:	a8 e6       	ldi	r26, 0x68	; 104
      e4:	b0 e0       	ldi	r27, 0x00	; 0
      e6:	01 c0       	rjmp	.+2      	; 0xea <.do_clear_bss_start>

000000e8 <.do_clear_bss_loop>:
      e8:	1d 92       	st	X+, r1

000000ea <.do_clear_bss_start>:
      ea:	a0 3a       	cpi	r26, 0xA0	; 160
      ec:	b2 07       	cpc	r27, r18
      ee:	e1 f7       	brne	.-8      	; 0xe8 <.do_clear_bss_loop>
      f0:	0e 94 7e 00 	call	0xfc	; 0xfc <main>
      f4:	0c 94 49 17 	jmp	0x2e92	; 0x2e92 <_exit>

000000f8 <__bad_interrupt>:
      f8:	0c 94 00 00 	jmp	0	; 0x0 <__vectors>

000000fc <main>:



int main(void) {

	mpu6050_init();
      fc:	0e 94 cb 01 	call	0x396	; 0x396 <mpu6050_init>
     100:	ff cf       	rjmp	.-2      	; 0x100 <main+0x4>

00000102 <mpu6050_readBytes>:
void mpu6050_getQuaternion(double *qw, double *qx, double *qy, double *qz) {
	*qw = q0;
	*qx = q1;
	*qy = q2;
	*qz = q3;
}
     102:	af 92       	push	r10
     104:	bf 92       	push	r11
     106:	cf 92       	push	r12
     108:	df 92       	push	r13
     10a:	ff 92       	push	r15
     10c:	0f 93       	push	r16
     10e:	1f 93       	push	r17
     110:	cf 93       	push	r28
     112:	df 93       	push	r29
     114:	66 23       	and	r22, r22
     116:	b9 f1       	breq	.+110    	; 0x186 <mpu6050_readBytes+0x84>
     118:	c5 2f       	mov	r28, r21
     11a:	d4 2f       	mov	r29, r20
     11c:	f6 2e       	mov	r15, r22
     11e:	18 2f       	mov	r17, r24
     120:	80 ed       	ldi	r24, 0xD0	; 208
     122:	0e 94 dc 12 	call	0x25b8	; 0x25b8 <i2c_start>
     126:	81 2f       	mov	r24, r17
     128:	0e 94 26 13 	call	0x264c	; 0x264c <i2c_write>
     12c:	83 e0       	ldi	r24, 0x03	; 3
     12e:	8a 95       	dec	r24
     130:	f1 f7       	brne	.-4      	; 0x12e <mpu6050_readBytes+0x2c>
     132:	00 00       	nop
     134:	81 ed       	ldi	r24, 0xD1	; 209
     136:	0e 94 dc 12 	call	0x25b8	; 0x25b8 <i2c_start>
     13a:	0d 2f       	mov	r16, r29
     13c:	1c 2f       	mov	r17, r28
     13e:	cc 24       	eor	r12, r12
     140:	ca 94       	dec	r12
     142:	cf 0c       	add	r12, r15
     144:	d1 2c       	mov	r13, r1
     146:	ef ef       	ldi	r30, 0xFF	; 255
     148:	ce 1a       	sub	r12, r30
     14a:	de 0a       	sbc	r13, r30
     14c:	c0 e0       	ldi	r28, 0x00	; 0
     14e:	d0 e0       	ldi	r29, 0x00	; 0
     150:	af 2c       	mov	r10, r15
     152:	b1 2c       	mov	r11, r1
     154:	f1 e0       	ldi	r31, 0x01	; 1
     156:	af 1a       	sub	r10, r31
     158:	b1 08       	sbc	r11, r1
     15a:	ac 16       	cp	r10, r28
     15c:	bd 06       	cpc	r11, r29
     15e:	29 f4       	brne	.+10     	; 0x16a <mpu6050_readBytes+0x68>
     160:	0e 94 58 13 	call	0x26b0	; 0x26b0 <i2c_readNak>
     164:	f8 01       	movw	r30, r16
     166:	80 83       	st	Z, r24
     168:	04 c0       	rjmp	.+8      	; 0x172 <mpu6050_readBytes+0x70>
     16a:	0e 94 42 13 	call	0x2684	; 0x2684 <i2c_readAck>
     16e:	f8 01       	movw	r30, r16
     170:	80 83       	st	Z, r24
     172:	21 96       	adiw	r28, 0x01	; 1
     174:	0f 5f       	subi	r16, 0xFF	; 255
     176:	1f 4f       	sbci	r17, 0xFF	; 255
     178:	cc 15       	cp	r28, r12
     17a:	dd 05       	cpc	r29, r13
     17c:	71 f7       	brne	.-36     	; 0x15a <mpu6050_readBytes+0x58>
     17e:	cf 2d       	mov	r28, r15
     180:	0e 94 19 13 	call	0x2632	; 0x2632 <i2c_stop>
     184:	01 c0       	rjmp	.+2      	; 0x188 <mpu6050_readBytes+0x86>
     186:	c0 e0       	ldi	r28, 0x00	; 0
     188:	8c 2f       	mov	r24, r28
     18a:	df 91       	pop	r29
     18c:	cf 91       	pop	r28
     18e:	1f 91       	pop	r17
     190:	0f 91       	pop	r16
     192:	ff 90       	pop	r15
     194:	df 90       	pop	r13
     196:	cf 90       	pop	r12
     198:	bf 90       	pop	r11
     19a:	af 90       	pop	r10
     19c:	08 95       	ret

0000019e <mpu6050_readByte>:
     19e:	ab 01       	movw	r20, r22
     1a0:	61 e0       	ldi	r22, 0x01	; 1
     1a2:	0e 94 81 00 	call	0x102	; 0x102 <mpu6050_readBytes>
     1a6:	08 95       	ret

000001a8 <mpu6050_writeBytes>:
     1a8:	ef 92       	push	r14
     1aa:	ff 92       	push	r15
     1ac:	0f 93       	push	r16
     1ae:	1f 93       	push	r17
     1b0:	cf 93       	push	r28
     1b2:	df 93       	push	r29
     1b4:	66 23       	and	r22, r22
     1b6:	d1 f0       	breq	.+52     	; 0x1ec <mpu6050_writeBytes+0x44>
     1b8:	7a 01       	movw	r14, r20
     1ba:	16 2f       	mov	r17, r22
     1bc:	c8 2f       	mov	r28, r24
     1be:	80 ed       	ldi	r24, 0xD0	; 208
     1c0:	0e 94 dc 12 	call	0x25b8	; 0x25b8 <i2c_start>
     1c4:	8c 2f       	mov	r24, r28
     1c6:	0e 94 26 13 	call	0x264c	; 0x264c <i2c_write>
     1ca:	e7 01       	movw	r28, r14
     1cc:	6f ef       	ldi	r22, 0xFF	; 255
     1ce:	61 0f       	add	r22, r17
     1d0:	06 2f       	mov	r16, r22
     1d2:	10 e0       	ldi	r17, 0x00	; 0
     1d4:	0f 5f       	subi	r16, 0xFF	; 255
     1d6:	1f 4f       	sbci	r17, 0xFF	; 255
     1d8:	0e 0d       	add	r16, r14
     1da:	1f 1d       	adc	r17, r15
     1dc:	89 91       	ld	r24, Y+
     1de:	0e 94 26 13 	call	0x264c	; 0x264c <i2c_write>
     1e2:	c0 17       	cp	r28, r16
     1e4:	d1 07       	cpc	r29, r17
     1e6:	d1 f7       	brne	.-12     	; 0x1dc <mpu6050_writeBytes+0x34>
     1e8:	0e 94 19 13 	call	0x2632	; 0x2632 <i2c_stop>
     1ec:	df 91       	pop	r29
     1ee:	cf 91       	pop	r28
     1f0:	1f 91       	pop	r17
     1f2:	0f 91       	pop	r16
     1f4:	ff 90       	pop	r15
     1f6:	ef 90       	pop	r14
     1f8:	08 95       	ret

000001fa <mpu6050_writeByte>:
     1fa:	cf 93       	push	r28
     1fc:	df 93       	push	r29
     1fe:	1f 92       	push	r1
     200:	cd b7       	in	r28, 0x3d	; 61
     202:	de b7       	in	r29, 0x3e	; 62
     204:	69 83       	std	Y+1, r22	; 0x01
     206:	ae 01       	movw	r20, r28
     208:	4f 5f       	subi	r20, 0xFF	; 255
     20a:	5f 4f       	sbci	r21, 0xFF	; 255
     20c:	61 e0       	ldi	r22, 0x01	; 1
     20e:	0e 94 d4 00 	call	0x1a8	; 0x1a8 <mpu6050_writeBytes>
     212:	0f 90       	pop	r0
     214:	df 91       	pop	r29
     216:	cf 91       	pop	r28
     218:	08 95       	ret

0000021a <mpu6050_readBit>:
     21a:	ff 92       	push	r15
     21c:	0f 93       	push	r16
     21e:	1f 93       	push	r17
     220:	cf 93       	push	r28
     222:	df 93       	push	r29
     224:	1f 92       	push	r1
     226:	cd b7       	in	r28, 0x3d	; 61
     228:	de b7       	in	r29, 0x3e	; 62
     22a:	f6 2e       	mov	r15, r22
     22c:	8a 01       	movw	r16, r20
     22e:	be 01       	movw	r22, r28
     230:	6f 5f       	subi	r22, 0xFF	; 255
     232:	7f 4f       	sbci	r23, 0xFF	; 255
     234:	0e 94 cf 00 	call	0x19e	; 0x19e <mpu6050_readByte>
     238:	21 e0       	ldi	r18, 0x01	; 1
     23a:	30 e0       	ldi	r19, 0x00	; 0
     23c:	02 c0       	rjmp	.+4      	; 0x242 <mpu6050_readBit+0x28>
     23e:	22 0f       	add	r18, r18
     240:	33 1f       	adc	r19, r19
     242:	fa 94       	dec	r15
     244:	e2 f7       	brpl	.-8      	; 0x23e <mpu6050_readBit+0x24>
     246:	99 81       	ldd	r25, Y+1	; 0x01
     248:	29 23       	and	r18, r25
     24a:	f8 01       	movw	r30, r16
     24c:	20 83       	st	Z, r18
     24e:	0f 90       	pop	r0
     250:	df 91       	pop	r29
     252:	cf 91       	pop	r28
     254:	1f 91       	pop	r17
     256:	0f 91       	pop	r16
     258:	ff 90       	pop	r15
     25a:	08 95       	ret

0000025c <mpu6050_writeBits>:
     25c:	ef 92       	push	r14
     25e:	ff 92       	push	r15
     260:	0f 93       	push	r16
     262:	1f 93       	push	r17
     264:	cf 93       	push	r28
     266:	df 93       	push	r29
     268:	1f 92       	push	r1
     26a:	cd b7       	in	r28, 0x3d	; 61
     26c:	de b7       	in	r29, 0x3e	; 62
     26e:	44 23       	and	r20, r20
     270:	89 f1       	breq	.+98     	; 0x2d4 <mpu6050_writeBits+0x78>
     272:	f2 2e       	mov	r15, r18
     274:	14 2f       	mov	r17, r20
     276:	06 2f       	mov	r16, r22
     278:	e8 2e       	mov	r14, r24
     27a:	19 82       	std	Y+1, r1	; 0x01
     27c:	be 01       	movw	r22, r28
     27e:	6f 5f       	subi	r22, 0xFF	; 255
     280:	7f 4f       	sbci	r23, 0xFF	; 255
     282:	0e 94 cf 00 	call	0x19e	; 0x19e <mpu6050_readByte>
     286:	88 23       	and	r24, r24
     288:	29 f1       	breq	.+74     	; 0x2d4 <mpu6050_writeBits+0x78>
     28a:	40 2f       	mov	r20, r16
     28c:	50 e0       	ldi	r21, 0x00	; 0
     28e:	41 1b       	sub	r20, r17
     290:	51 09       	sbc	r21, r1
     292:	4f 5f       	subi	r20, 0xFF	; 255
     294:	5f 4f       	sbci	r21, 0xFF	; 255
     296:	81 e0       	ldi	r24, 0x01	; 1
     298:	90 e0       	ldi	r25, 0x00	; 0
     29a:	02 c0       	rjmp	.+4      	; 0x2a0 <mpu6050_writeBits+0x44>
     29c:	88 0f       	add	r24, r24
     29e:	99 1f       	adc	r25, r25
     2a0:	1a 95       	dec	r17
     2a2:	e2 f7       	brpl	.-8      	; 0x29c <mpu6050_writeBits+0x40>
     2a4:	01 97       	sbiw	r24, 0x01	; 1
     2a6:	04 2e       	mov	r0, r20
     2a8:	02 c0       	rjmp	.+4      	; 0x2ae <mpu6050_writeBits+0x52>
     2aa:	88 0f       	add	r24, r24
     2ac:	99 1f       	adc	r25, r25
     2ae:	0a 94       	dec	r0
     2b0:	e2 f7       	brpl	.-8      	; 0x2aa <mpu6050_writeBits+0x4e>
     2b2:	2f 2d       	mov	r18, r15
     2b4:	30 e0       	ldi	r19, 0x00	; 0
     2b6:	02 c0       	rjmp	.+4      	; 0x2bc <mpu6050_writeBits+0x60>
     2b8:	22 0f       	add	r18, r18
     2ba:	33 1f       	adc	r19, r19
     2bc:	4a 95       	dec	r20
     2be:	e2 f7       	brpl	.-8      	; 0x2b8 <mpu6050_writeBits+0x5c>
     2c0:	68 2f       	mov	r22, r24
     2c2:	60 95       	com	r22
     2c4:	99 81       	ldd	r25, Y+1	; 0x01
     2c6:	69 23       	and	r22, r25
     2c8:	82 23       	and	r24, r18
     2ca:	68 2b       	or	r22, r24
     2cc:	69 83       	std	Y+1, r22	; 0x01
     2ce:	8e 2d       	mov	r24, r14
     2d0:	0e 94 fd 00 	call	0x1fa	; 0x1fa <mpu6050_writeByte>
     2d4:	0f 90       	pop	r0
     2d6:	df 91       	pop	r29
     2d8:	cf 91       	pop	r28
     2da:	1f 91       	pop	r17
     2dc:	0f 91       	pop	r16
     2de:	ff 90       	pop	r15
     2e0:	ef 90       	pop	r14
     2e2:	08 95       	ret

000002e4 <mpu6050_writeBit>:
     2e4:	ff 92       	push	r15
     2e6:	0f 93       	push	r16
     2e8:	1f 93       	push	r17
     2ea:	cf 93       	push	r28
     2ec:	df 93       	push	r29
     2ee:	1f 92       	push	r1
     2f0:	cd b7       	in	r28, 0x3d	; 61
     2f2:	de b7       	in	r29, 0x3e	; 62
     2f4:	18 2f       	mov	r17, r24
     2f6:	06 2f       	mov	r16, r22
     2f8:	f4 2e       	mov	r15, r20
     2fa:	be 01       	movw	r22, r28
     2fc:	6f 5f       	subi	r22, 0xFF	; 255
     2fe:	7f 4f       	sbci	r23, 0xFF	; 255
     300:	0e 94 cf 00 	call	0x19e	; 0x19e <mpu6050_readByte>
     304:	ff 20       	and	r15, r15
     306:	51 f0       	breq	.+20     	; 0x31c <mpu6050_writeBit+0x38>
     308:	61 e0       	ldi	r22, 0x01	; 1
     30a:	70 e0       	ldi	r23, 0x00	; 0
     30c:	02 c0       	rjmp	.+4      	; 0x312 <mpu6050_writeBit+0x2e>
     30e:	66 0f       	add	r22, r22
     310:	77 1f       	adc	r23, r23
     312:	0a 95       	dec	r16
     314:	e2 f7       	brpl	.-8      	; 0x30e <mpu6050_writeBit+0x2a>
     316:	89 81       	ldd	r24, Y+1	; 0x01
     318:	68 2b       	or	r22, r24
     31a:	0a c0       	rjmp	.+20     	; 0x330 <mpu6050_writeBit+0x4c>
     31c:	61 e0       	ldi	r22, 0x01	; 1
     31e:	70 e0       	ldi	r23, 0x00	; 0
     320:	02 c0       	rjmp	.+4      	; 0x326 <mpu6050_writeBit+0x42>
     322:	66 0f       	add	r22, r22
     324:	77 1f       	adc	r23, r23
     326:	0a 95       	dec	r16
     328:	e2 f7       	brpl	.-8      	; 0x322 <mpu6050_writeBit+0x3e>
     32a:	60 95       	com	r22
     32c:	89 81       	ldd	r24, Y+1	; 0x01
     32e:	68 23       	and	r22, r24
     330:	69 83       	std	Y+1, r22	; 0x01
     332:	81 2f       	mov	r24, r17
     334:	0e 94 fd 00 	call	0x1fa	; 0x1fa <mpu6050_writeByte>
     338:	0f 90       	pop	r0
     33a:	df 91       	pop	r29
     33c:	cf 91       	pop	r28
     33e:	1f 91       	pop	r17
     340:	0f 91       	pop	r16
     342:	ff 90       	pop	r15
     344:	08 95       	ret

00000346 <mpu6050_setSleepDisabled>:
     346:	40 e0       	ldi	r20, 0x00	; 0
     348:	66 e0       	ldi	r22, 0x06	; 6
     34a:	8b e6       	ldi	r24, 0x6B	; 107
     34c:	0e 94 72 01 	call	0x2e4	; 0x2e4 <mpu6050_writeBit>
     350:	08 95       	ret

00000352 <compass_init>:
     352:	8c e3       	ldi	r24, 0x3C	; 60
     354:	0e 94 dc 12 	call	0x25b8	; 0x25b8 <i2c_start>
     358:	80 e0       	ldi	r24, 0x00	; 0
     35a:	0e 94 26 13 	call	0x264c	; 0x264c <i2c_write>
     35e:	88 e7       	ldi	r24, 0x78	; 120
     360:	0e 94 26 13 	call	0x264c	; 0x264c <i2c_write>
     364:	0e 94 19 13 	call	0x2632	; 0x2632 <i2c_stop>
     368:	8c e3       	ldi	r24, 0x3C	; 60
     36a:	0e 94 dc 12 	call	0x25b8	; 0x25b8 <i2c_start>
     36e:	81 e0       	ldi	r24, 0x01	; 1
     370:	0e 94 26 13 	call	0x264c	; 0x264c <i2c_write>
     374:	80 e0       	ldi	r24, 0x00	; 0
     376:	0e 94 26 13 	call	0x264c	; 0x264c <i2c_write>
     37a:	0e 94 19 13 	call	0x2632	; 0x2632 <i2c_stop>
     37e:	8c e3       	ldi	r24, 0x3C	; 60
     380:	0e 94 dc 12 	call	0x25b8	; 0x25b8 <i2c_start>
     384:	82 e0       	ldi	r24, 0x02	; 2
     386:	0e 94 26 13 	call	0x264c	; 0x264c <i2c_write>
     38a:	80 e0       	ldi	r24, 0x00	; 0
     38c:	0e 94 26 13 	call	0x264c	; 0x264c <i2c_write>
     390:	0e 94 19 13 	call	0x2632	; 0x2632 <i2c_stop>
     394:	08 95       	ret

00000396 <mpu6050_init>:
     396:	ef 92       	push	r14
     398:	ff 92       	push	r15
     39a:	0f 93       	push	r16
     39c:	1a ba       	out	0x1a, r1	; 26
     39e:	e1 2c       	mov	r14, r1
     3a0:	f1 2c       	mov	r15, r1
     3a2:	00 e0       	ldi	r16, 0x00	; 0
     3a4:	21 e0       	ldi	r18, 0x01	; 1
     3a6:	40 e0       	ldi	r20, 0x00	; 0
     3a8:	52 e1       	ldi	r21, 0x12	; 18
     3aa:	6a e7       	ldi	r22, 0x7A	; 122
     3ac:	70 e0       	ldi	r23, 0x00	; 0
     3ae:	80 e0       	ldi	r24, 0x00	; 0
     3b0:	96 e9       	ldi	r25, 0x96	; 150
     3b2:	0e 94 6e 13 	call	0x26dc	; 0x26dc <uartInit>
     3b6:	78 94       	sei
     3b8:	0e 94 d8 12 	call	0x25b0	; 0x25b0 <i2c_init>
     3bc:	83 e0       	ldi	r24, 0x03	; 3
     3be:	8a 95       	dec	r24
     3c0:	f1 f7       	brne	.-4      	; 0x3be <mpu6050_init+0x28>
     3c2:	00 00       	nop
     3c4:	87 ea       	ldi	r24, 0xA7	; 167
     3c6:	91 e6       	ldi	r25, 0x61	; 97
     3c8:	01 97       	sbiw	r24, 0x01	; 1
     3ca:	f1 f7       	brne	.-4      	; 0x3c8 <mpu6050_init+0x32>
     3cc:	00 c0       	rjmp	.+0      	; 0x3ce <mpu6050_init+0x38>
     3ce:	00 00       	nop
     3d0:	0e 94 a3 01 	call	0x346	; 0x346 <mpu6050_setSleepDisabled>
     3d4:	83 ec       	ldi	r24, 0xC3	; 195
     3d6:	99 e0       	ldi	r25, 0x09	; 9
     3d8:	01 97       	sbiw	r24, 0x01	; 1
     3da:	f1 f7       	brne	.-4      	; 0x3d8 <mpu6050_init+0x42>
     3dc:	00 c0       	rjmp	.+0      	; 0x3de <mpu6050_init+0x48>
     3de:	00 00       	nop
     3e0:	21 e0       	ldi	r18, 0x01	; 1
     3e2:	43 e0       	ldi	r20, 0x03	; 3
     3e4:	62 e0       	ldi	r22, 0x02	; 2
     3e6:	8b e6       	ldi	r24, 0x6B	; 107
     3e8:	0e 94 2e 01 	call	0x25c	; 0x25c <mpu6050_writeBits>
     3ec:	23 e0       	ldi	r18, 0x03	; 3
     3ee:	43 e0       	ldi	r20, 0x03	; 3
     3f0:	62 e0       	ldi	r22, 0x02	; 2
     3f2:	8a e1       	ldi	r24, 0x1A	; 26
     3f4:	0e 94 2e 01 	call	0x25c	; 0x25c <mpu6050_writeBits>
     3f8:	64 e0       	ldi	r22, 0x04	; 4
     3fa:	89 e1       	ldi	r24, 0x19	; 25
     3fc:	0e 94 fd 00 	call	0x1fa	; 0x1fa <mpu6050_writeByte>
     400:	23 e0       	ldi	r18, 0x03	; 3
     402:	42 e0       	ldi	r20, 0x02	; 2
     404:	64 e0       	ldi	r22, 0x04	; 4
     406:	8b e1       	ldi	r24, 0x1B	; 27
     408:	0e 94 2e 01 	call	0x25c	; 0x25c <mpu6050_writeBits>
     40c:	20 e0       	ldi	r18, 0x00	; 0
     40e:	42 e0       	ldi	r20, 0x02	; 2
     410:	64 e0       	ldi	r22, 0x04	; 4
     412:	8c e1       	ldi	r24, 0x1C	; 28
     414:	0e 94 2e 01 	call	0x25c	; 0x25c <mpu6050_writeBits>
     418:	0e 94 a9 01 	call	0x352	; 0x352 <compass_init>
     41c:	83 b7       	in	r24, 0x33	; 51
     41e:	84 60       	ori	r24, 0x04	; 4
     420:	83 bf       	out	0x33, r24	; 51
     422:	89 b7       	in	r24, 0x39	; 57
     424:	81 60       	ori	r24, 0x01	; 1
     426:	89 bf       	out	0x39, r24	; 57
     428:	0f 91       	pop	r16
     42a:	ff 90       	pop	r15
     42c:	ef 90       	pop	r14
     42e:	08 95       	ret

00000430 <compass_getData>:
     430:	8c e3       	ldi	r24, 0x3C	; 60
     432:	0e 94 dc 12 	call	0x25b8	; 0x25b8 <i2c_start>
     436:	83 e0       	ldi	r24, 0x03	; 3
     438:	0e 94 26 13 	call	0x264c	; 0x264c <i2c_write>
     43c:	83 e0       	ldi	r24, 0x03	; 3
     43e:	8a 95       	dec	r24
     440:	f1 f7       	brne	.-4      	; 0x43e <compass_getData+0xe>
     442:	00 00       	nop
     444:	8d e3       	ldi	r24, 0x3D	; 61
     446:	0e 94 dc 12 	call	0x25b8	; 0x25b8 <i2c_start>
     44a:	0e 94 42 13 	call	0x2684	; 0x2684 <i2c_readAck>
     44e:	0e 94 42 13 	call	0x2684	; 0x2684 <i2c_readAck>
     452:	0e 94 42 13 	call	0x2684	; 0x2684 <i2c_readAck>
     456:	0e 94 42 13 	call	0x2684	; 0x2684 <i2c_readAck>
     45a:	0e 94 42 13 	call	0x2684	; 0x2684 <i2c_readAck>
     45e:	0e 94 58 13 	call	0x26b0	; 0x26b0 <i2c_readNak>
     462:	0e 94 19 13 	call	0x2632	; 0x2632 <i2c_stop>
     466:	08 95       	ret

00000468 <invSqrt>:
     468:	0e 94 ce 16 	call	0x2d9c	; 0x2d9c <sqrt>
     46c:	9b 01       	movw	r18, r22
     46e:	ac 01       	movw	r20, r24
     470:	60 e0       	ldi	r22, 0x00	; 0
     472:	70 e0       	ldi	r23, 0x00	; 0
     474:	80 e8       	ldi	r24, 0x80	; 128
     476:	9f e3       	ldi	r25, 0x3F	; 63
     478:	0e 94 cf 14 	call	0x299e	; 0x299e <__divsf3>
     47c:	08 95       	ret

0000047e <MahonyAHRSupdateIMU>:
     47e:	4f 92       	push	r4
     480:	5f 92       	push	r5
     482:	6f 92       	push	r6
     484:	7f 92       	push	r7
     486:	8f 92       	push	r8
     488:	9f 92       	push	r9
     48a:	af 92       	push	r10
     48c:	bf 92       	push	r11
     48e:	cf 92       	push	r12
     490:	df 92       	push	r13
     492:	ef 92       	push	r14
     494:	ff 92       	push	r15
     496:	0f 93       	push	r16
     498:	1f 93       	push	r17
     49a:	cf 93       	push	r28
     49c:	df 93       	push	r29
     49e:	cd b7       	in	r28, 0x3d	; 61
     4a0:	de b7       	in	r29, 0x3e	; 62
     4a2:	a4 97       	sbiw	r28, 0x24	; 36
     4a4:	0f b6       	in	r0, 0x3f	; 63
     4a6:	f8 94       	cli
     4a8:	de bf       	out	0x3e, r29	; 62
     4aa:	0f be       	out	0x3f, r0	; 63
     4ac:	cd bf       	out	0x3d, r28	; 61
     4ae:	69 87       	std	Y+9, r22	; 0x09
     4b0:	7a 87       	std	Y+10, r23	; 0x0a
     4b2:	8b 87       	std	Y+11, r24	; 0x0b
     4b4:	9c 87       	std	Y+12, r25	; 0x0c
     4b6:	2d 87       	std	Y+13, r18	; 0x0d
     4b8:	3e 87       	std	Y+14, r19	; 0x0e
     4ba:	4f 87       	std	Y+15, r20	; 0x0f
     4bc:	58 8b       	std	Y+16, r21	; 0x10
     4be:	e9 8a       	std	Y+17, r14	; 0x11
     4c0:	fa 8a       	std	Y+18, r15	; 0x12
     4c2:	0b 8b       	std	Y+19, r16	; 0x13
     4c4:	1c 8b       	std	Y+20, r17	; 0x14
     4c6:	20 e0       	ldi	r18, 0x00	; 0
     4c8:	30 e0       	ldi	r19, 0x00	; 0
     4ca:	a9 01       	movw	r20, r18
     4cc:	c6 01       	movw	r24, r12
     4ce:	b5 01       	movw	r22, r10
     4d0:	0e 94 ca 14 	call	0x2994	; 0x2994 <__cmpsf2>
     4d4:	81 11       	cpse	r24, r1
     4d6:	17 c0       	rjmp	.+46     	; 0x506 <MahonyAHRSupdateIMU+0x88>
     4d8:	20 e0       	ldi	r18, 0x00	; 0
     4da:	30 e0       	ldi	r19, 0x00	; 0
     4dc:	a9 01       	movw	r20, r18
     4de:	6f a9       	ldd	r22, Y+55	; 0x37
     4e0:	78 ad       	ldd	r23, Y+56	; 0x38
     4e2:	89 ad       	ldd	r24, Y+57	; 0x39
     4e4:	9a ad       	ldd	r25, Y+58	; 0x3a
     4e6:	0e 94 ca 14 	call	0x2994	; 0x2994 <__cmpsf2>
     4ea:	81 11       	cpse	r24, r1
     4ec:	0c c0       	rjmp	.+24     	; 0x506 <MahonyAHRSupdateIMU+0x88>
     4ee:	20 e0       	ldi	r18, 0x00	; 0
     4f0:	30 e0       	ldi	r19, 0x00	; 0
     4f2:	a9 01       	movw	r20, r18
     4f4:	6b ad       	ldd	r22, Y+59	; 0x3b
     4f6:	7c ad       	ldd	r23, Y+60	; 0x3c
     4f8:	8d ad       	ldd	r24, Y+61	; 0x3d
     4fa:	9e ad       	ldd	r25, Y+62	; 0x3e
     4fc:	0e 94 ca 14 	call	0x2994	; 0x2994 <__cmpsf2>
     500:	88 23       	and	r24, r24
     502:	09 f4       	brne	.+2      	; 0x506 <MahonyAHRSupdateIMU+0x88>
     504:	61 c2       	rjmp	.+1218   	; 0x9c8 <MahonyAHRSupdateIMU+0x54a>
     506:	a6 01       	movw	r20, r12
     508:	95 01       	movw	r18, r10
     50a:	c6 01       	movw	r24, r12
     50c:	b5 01       	movw	r22, r10
     50e:	0e 94 5b 16 	call	0x2cb6	; 0x2cb6 <__mulsf3>
     512:	2b 01       	movw	r4, r22
     514:	3c 01       	movw	r6, r24
     516:	2f a9       	ldd	r18, Y+55	; 0x37
     518:	38 ad       	ldd	r19, Y+56	; 0x38
     51a:	49 ad       	ldd	r20, Y+57	; 0x39
     51c:	5a ad       	ldd	r21, Y+58	; 0x3a
     51e:	ca 01       	movw	r24, r20
     520:	b9 01       	movw	r22, r18
     522:	0e 94 5b 16 	call	0x2cb6	; 0x2cb6 <__mulsf3>
     526:	9b 01       	movw	r18, r22
     528:	ac 01       	movw	r20, r24
     52a:	c3 01       	movw	r24, r6
     52c:	b2 01       	movw	r22, r4
     52e:	0e 94 d1 13 	call	0x27a2	; 0x27a2 <__addsf3>
     532:	2b 01       	movw	r4, r22
     534:	3c 01       	movw	r6, r24
     536:	2b ad       	ldd	r18, Y+59	; 0x3b
     538:	3c ad       	ldd	r19, Y+60	; 0x3c
     53a:	4d ad       	ldd	r20, Y+61	; 0x3d
     53c:	5e ad       	ldd	r21, Y+62	; 0x3e
     53e:	ca 01       	movw	r24, r20
     540:	b9 01       	movw	r22, r18
     542:	0e 94 5b 16 	call	0x2cb6	; 0x2cb6 <__mulsf3>
     546:	9b 01       	movw	r18, r22
     548:	ac 01       	movw	r20, r24
     54a:	c3 01       	movw	r24, r6
     54c:	b2 01       	movw	r22, r4
     54e:	0e 94 d1 13 	call	0x27a2	; 0x27a2 <__addsf3>
     552:	0e 94 34 02 	call	0x468	; 0x468 <invSqrt>
     556:	2b 01       	movw	r4, r22
     558:	3c 01       	movw	r6, r24
     55a:	9b 01       	movw	r18, r22
     55c:	ac 01       	movw	r20, r24
     55e:	c6 01       	movw	r24, r12
     560:	b5 01       	movw	r22, r10
     562:	0e 94 5b 16 	call	0x2cb6	; 0x2cb6 <__mulsf3>
     566:	69 83       	std	Y+1, r22	; 0x01
     568:	7a 83       	std	Y+2, r23	; 0x02
     56a:	8b 83       	std	Y+3, r24	; 0x03
     56c:	9c 83       	std	Y+4, r25	; 0x04
     56e:	a3 01       	movw	r20, r6
     570:	92 01       	movw	r18, r4
     572:	6f a9       	ldd	r22, Y+55	; 0x37
     574:	78 ad       	ldd	r23, Y+56	; 0x38
     576:	89 ad       	ldd	r24, Y+57	; 0x39
     578:	9a ad       	ldd	r25, Y+58	; 0x3a
     57a:	0e 94 5b 16 	call	0x2cb6	; 0x2cb6 <__mulsf3>
     57e:	6d 83       	std	Y+5, r22	; 0x05
     580:	7e 83       	std	Y+6, r23	; 0x06
     582:	8f 83       	std	Y+7, r24	; 0x07
     584:	98 87       	std	Y+8, r25	; 0x08
     586:	a3 01       	movw	r20, r6
     588:	92 01       	movw	r18, r4
     58a:	6b ad       	ldd	r22, Y+59	; 0x3b
     58c:	7c ad       	ldd	r23, Y+60	; 0x3c
     58e:	8d ad       	ldd	r24, Y+61	; 0x3d
     590:	9e ad       	ldd	r25, Y+62	; 0x3e
     592:	0e 94 5b 16 	call	0x2cb6	; 0x2cb6 <__mulsf3>
     596:	6d 8b       	std	Y+21, r22	; 0x15
     598:	7e 8b       	std	Y+22, r23	; 0x16
     59a:	8f 8b       	std	Y+23, r24	; 0x17
     59c:	98 8f       	std	Y+24, r25	; 0x18
     59e:	60 91 88 00 	lds	r22, 0x0088	; 0x800088 <q1>
     5a2:	70 91 89 00 	lds	r23, 0x0089	; 0x800089 <q1+0x1>
     5a6:	80 91 8a 00 	lds	r24, 0x008A	; 0x80008a <q1+0x2>
     5aa:	90 91 8b 00 	lds	r25, 0x008B	; 0x80008b <q1+0x3>
     5ae:	20 91 80 00 	lds	r18, 0x0080	; 0x800080 <q3>
     5b2:	30 91 81 00 	lds	r19, 0x0081	; 0x800081 <q3+0x1>
     5b6:	40 91 82 00 	lds	r20, 0x0082	; 0x800082 <q3+0x2>
     5ba:	50 91 83 00 	lds	r21, 0x0083	; 0x800083 <q3+0x3>
     5be:	80 90 60 00 	lds	r8, 0x0060	; 0x800060 <__data_start>
     5c2:	90 90 61 00 	lds	r9, 0x0061	; 0x800061 <__data_start+0x1>
     5c6:	a0 90 62 00 	lds	r10, 0x0062	; 0x800062 <__data_start+0x2>
     5ca:	b0 90 63 00 	lds	r11, 0x0063	; 0x800063 <__data_start+0x3>
     5ce:	40 90 84 00 	lds	r4, 0x0084	; 0x800084 <q2>
     5d2:	50 90 85 00 	lds	r5, 0x0085	; 0x800085 <q2+0x1>
     5d6:	60 90 86 00 	lds	r6, 0x0086	; 0x800086 <q2+0x2>
     5da:	70 90 87 00 	lds	r7, 0x0087	; 0x800087 <q2+0x3>
     5de:	0e 94 5b 16 	call	0x2cb6	; 0x2cb6 <__mulsf3>
     5e2:	6b 01       	movw	r12, r22
     5e4:	7c 01       	movw	r14, r24
     5e6:	a3 01       	movw	r20, r6
     5e8:	92 01       	movw	r18, r4
     5ea:	c5 01       	movw	r24, r10
     5ec:	b4 01       	movw	r22, r8
     5ee:	0e 94 5b 16 	call	0x2cb6	; 0x2cb6 <__mulsf3>
     5f2:	9b 01       	movw	r18, r22
     5f4:	ac 01       	movw	r20, r24
     5f6:	c7 01       	movw	r24, r14
     5f8:	b6 01       	movw	r22, r12
     5fa:	0e 94 d0 13 	call	0x27a0	; 0x27a0 <__subsf3>
     5fe:	69 8f       	std	Y+25, r22	; 0x19
     600:	7a 8f       	std	Y+26, r23	; 0x1a
     602:	8b 8f       	std	Y+27, r24	; 0x1b
     604:	9c 8f       	std	Y+28, r25	; 0x1c
     606:	60 91 60 00 	lds	r22, 0x0060	; 0x800060 <__data_start>
     60a:	70 91 61 00 	lds	r23, 0x0061	; 0x800061 <__data_start+0x1>
     60e:	80 91 62 00 	lds	r24, 0x0062	; 0x800062 <__data_start+0x2>
     612:	90 91 63 00 	lds	r25, 0x0063	; 0x800063 <__data_start+0x3>
     616:	20 91 88 00 	lds	r18, 0x0088	; 0x800088 <q1>
     61a:	30 91 89 00 	lds	r19, 0x0089	; 0x800089 <q1+0x1>
     61e:	40 91 8a 00 	lds	r20, 0x008A	; 0x80008a <q1+0x2>
     622:	50 91 8b 00 	lds	r21, 0x008B	; 0x80008b <q1+0x3>
     626:	80 90 84 00 	lds	r8, 0x0084	; 0x800084 <q2>
     62a:	90 90 85 00 	lds	r9, 0x0085	; 0x800085 <q2+0x1>
     62e:	a0 90 86 00 	lds	r10, 0x0086	; 0x800086 <q2+0x2>
     632:	b0 90 87 00 	lds	r11, 0x0087	; 0x800087 <q2+0x3>
     636:	40 90 80 00 	lds	r4, 0x0080	; 0x800080 <q3>
     63a:	50 90 81 00 	lds	r5, 0x0081	; 0x800081 <q3+0x1>
     63e:	60 90 82 00 	lds	r6, 0x0082	; 0x800082 <q3+0x2>
     642:	70 90 83 00 	lds	r7, 0x0083	; 0x800083 <q3+0x3>
     646:	0e 94 5b 16 	call	0x2cb6	; 0x2cb6 <__mulsf3>
     64a:	6b 01       	movw	r12, r22
     64c:	7c 01       	movw	r14, r24
     64e:	a3 01       	movw	r20, r6
     650:	92 01       	movw	r18, r4
     652:	c5 01       	movw	r24, r10
     654:	b4 01       	movw	r22, r8
     656:	0e 94 5b 16 	call	0x2cb6	; 0x2cb6 <__mulsf3>
     65a:	9b 01       	movw	r18, r22
     65c:	ac 01       	movw	r20, r24
     65e:	c7 01       	movw	r24, r14
     660:	b6 01       	movw	r22, r12
     662:	0e 94 d1 13 	call	0x27a2	; 0x27a2 <__addsf3>
     666:	6d 8f       	std	Y+29, r22	; 0x1d
     668:	7e 8f       	std	Y+30, r23	; 0x1e
     66a:	8f 8f       	std	Y+31, r24	; 0x1f
     66c:	98 a3       	std	Y+32, r25	; 0x20
     66e:	60 91 60 00 	lds	r22, 0x0060	; 0x800060 <__data_start>
     672:	70 91 61 00 	lds	r23, 0x0061	; 0x800061 <__data_start+0x1>
     676:	80 91 62 00 	lds	r24, 0x0062	; 0x800062 <__data_start+0x2>
     67a:	90 91 63 00 	lds	r25, 0x0063	; 0x800063 <__data_start+0x3>
     67e:	20 91 60 00 	lds	r18, 0x0060	; 0x800060 <__data_start>
     682:	30 91 61 00 	lds	r19, 0x0061	; 0x800061 <__data_start+0x1>
     686:	40 91 62 00 	lds	r20, 0x0062	; 0x800062 <__data_start+0x2>
     68a:	50 91 63 00 	lds	r21, 0x0063	; 0x800063 <__data_start+0x3>
     68e:	80 90 80 00 	lds	r8, 0x0080	; 0x800080 <q3>
     692:	90 90 81 00 	lds	r9, 0x0081	; 0x800081 <q3+0x1>
     696:	a0 90 82 00 	lds	r10, 0x0082	; 0x800082 <q3+0x2>
     69a:	b0 90 83 00 	lds	r11, 0x0083	; 0x800083 <q3+0x3>
     69e:	40 90 80 00 	lds	r4, 0x0080	; 0x800080 <q3>
     6a2:	50 90 81 00 	lds	r5, 0x0081	; 0x800081 <q3+0x1>
     6a6:	60 90 82 00 	lds	r6, 0x0082	; 0x800082 <q3+0x2>
     6aa:	70 90 83 00 	lds	r7, 0x0083	; 0x800083 <q3+0x3>
     6ae:	0e 94 5b 16 	call	0x2cb6	; 0x2cb6 <__mulsf3>
     6b2:	20 e0       	ldi	r18, 0x00	; 0
     6b4:	30 e0       	ldi	r19, 0x00	; 0
     6b6:	40 e0       	ldi	r20, 0x00	; 0
     6b8:	5f e3       	ldi	r21, 0x3F	; 63
     6ba:	0e 94 d0 13 	call	0x27a0	; 0x27a0 <__subsf3>
     6be:	6b 01       	movw	r12, r22
     6c0:	7c 01       	movw	r14, r24
     6c2:	a3 01       	movw	r20, r6
     6c4:	92 01       	movw	r18, r4
     6c6:	c5 01       	movw	r24, r10
     6c8:	b4 01       	movw	r22, r8
     6ca:	0e 94 5b 16 	call	0x2cb6	; 0x2cb6 <__mulsf3>
     6ce:	9b 01       	movw	r18, r22
     6d0:	ac 01       	movw	r20, r24
     6d2:	c7 01       	movw	r24, r14
     6d4:	b6 01       	movw	r22, r12
     6d6:	0e 94 d1 13 	call	0x27a2	; 0x27a2 <__addsf3>
     6da:	6b 01       	movw	r12, r22
     6dc:	7c 01       	movw	r14, r24
     6de:	9b 01       	movw	r18, r22
     6e0:	ac 01       	movw	r20, r24
     6e2:	6d 81       	ldd	r22, Y+5	; 0x05
     6e4:	7e 81       	ldd	r23, Y+6	; 0x06
     6e6:	8f 81       	ldd	r24, Y+7	; 0x07
     6e8:	98 85       	ldd	r25, Y+8	; 0x08
     6ea:	0e 94 5b 16 	call	0x2cb6	; 0x2cb6 <__mulsf3>
     6ee:	4b 01       	movw	r8, r22
     6f0:	5c 01       	movw	r10, r24
     6f2:	2d 8d       	ldd	r18, Y+29	; 0x1d
     6f4:	3e 8d       	ldd	r19, Y+30	; 0x1e
     6f6:	4f 8d       	ldd	r20, Y+31	; 0x1f
     6f8:	58 a1       	ldd	r21, Y+32	; 0x20
     6fa:	6d 89       	ldd	r22, Y+21	; 0x15
     6fc:	7e 89       	ldd	r23, Y+22	; 0x16
     6fe:	8f 89       	ldd	r24, Y+23	; 0x17
     700:	98 8d       	ldd	r25, Y+24	; 0x18
     702:	0e 94 5b 16 	call	0x2cb6	; 0x2cb6 <__mulsf3>
     706:	9b 01       	movw	r18, r22
     708:	ac 01       	movw	r20, r24
     70a:	c5 01       	movw	r24, r10
     70c:	b4 01       	movw	r22, r8
     70e:	0e 94 d0 13 	call	0x27a0	; 0x27a0 <__subsf3>
     712:	69 a3       	std	Y+33, r22	; 0x21
     714:	7a a3       	std	Y+34, r23	; 0x22
     716:	8b a3       	std	Y+35, r24	; 0x23
     718:	9c a3       	std	Y+36, r25	; 0x24
     71a:	29 8d       	ldd	r18, Y+25	; 0x19
     71c:	3a 8d       	ldd	r19, Y+26	; 0x1a
     71e:	4b 8d       	ldd	r20, Y+27	; 0x1b
     720:	5c 8d       	ldd	r21, Y+28	; 0x1c
     722:	6d 89       	ldd	r22, Y+21	; 0x15
     724:	7e 89       	ldd	r23, Y+22	; 0x16
     726:	8f 89       	ldd	r24, Y+23	; 0x17
     728:	98 8d       	ldd	r25, Y+24	; 0x18
     72a:	0e 94 5b 16 	call	0x2cb6	; 0x2cb6 <__mulsf3>
     72e:	4b 01       	movw	r8, r22
     730:	5c 01       	movw	r10, r24
     732:	a7 01       	movw	r20, r14
     734:	96 01       	movw	r18, r12
     736:	69 81       	ldd	r22, Y+1	; 0x01
     738:	7a 81       	ldd	r23, Y+2	; 0x02
     73a:	8b 81       	ldd	r24, Y+3	; 0x03
     73c:	9c 81       	ldd	r25, Y+4	; 0x04
     73e:	0e 94 5b 16 	call	0x2cb6	; 0x2cb6 <__mulsf3>
     742:	9b 01       	movw	r18, r22
     744:	ac 01       	movw	r20, r24
     746:	c5 01       	movw	r24, r10
     748:	b4 01       	movw	r22, r8
     74a:	0e 94 d0 13 	call	0x27a0	; 0x27a0 <__subsf3>
     74e:	4b 01       	movw	r8, r22
     750:	5c 01       	movw	r10, r24
     752:	2d 8d       	ldd	r18, Y+29	; 0x1d
     754:	3e 8d       	ldd	r19, Y+30	; 0x1e
     756:	4f 8d       	ldd	r20, Y+31	; 0x1f
     758:	58 a1       	ldd	r21, Y+32	; 0x20
     75a:	69 81       	ldd	r22, Y+1	; 0x01
     75c:	7a 81       	ldd	r23, Y+2	; 0x02
     75e:	8b 81       	ldd	r24, Y+3	; 0x03
     760:	9c 81       	ldd	r25, Y+4	; 0x04
     762:	0e 94 5b 16 	call	0x2cb6	; 0x2cb6 <__mulsf3>
     766:	6b 01       	movw	r12, r22
     768:	7c 01       	movw	r14, r24
     76a:	29 8d       	ldd	r18, Y+25	; 0x19
     76c:	3a 8d       	ldd	r19, Y+26	; 0x1a
     76e:	4b 8d       	ldd	r20, Y+27	; 0x1b
     770:	5c 8d       	ldd	r21, Y+28	; 0x1c
     772:	6d 81       	ldd	r22, Y+5	; 0x05
     774:	7e 81       	ldd	r23, Y+6	; 0x06
     776:	8f 81       	ldd	r24, Y+7	; 0x07
     778:	98 85       	ldd	r25, Y+8	; 0x08
     77a:	0e 94 5b 16 	call	0x2cb6	; 0x2cb6 <__mulsf3>
     77e:	9b 01       	movw	r18, r22
     780:	ac 01       	movw	r20, r24
     782:	c7 01       	movw	r24, r14
     784:	b6 01       	movw	r22, r12
     786:	0e 94 d0 13 	call	0x27a0	; 0x27a0 <__subsf3>
     78a:	6b 01       	movw	r12, r22
     78c:	7c 01       	movw	r14, r24
     78e:	60 91 8c 00 	lds	r22, 0x008C	; 0x80008c <twoKi>
     792:	70 91 8d 00 	lds	r23, 0x008D	; 0x80008d <twoKi+0x1>
     796:	80 91 8e 00 	lds	r24, 0x008E	; 0x80008e <twoKi+0x2>
     79a:	90 91 8f 00 	lds	r25, 0x008F	; 0x80008f <twoKi+0x3>
     79e:	20 e0       	ldi	r18, 0x00	; 0
     7a0:	30 e0       	ldi	r19, 0x00	; 0
     7a2:	a9 01       	movw	r20, r18
     7a4:	0e 94 4e 16 	call	0x2c9c	; 0x2c9c <__gesf2>
     7a8:	18 16       	cp	r1, r24
     7aa:	0c f0       	brlt	.+2      	; 0x7ae <MahonyAHRSupdateIMU+0x330>
     7ac:	ab c0       	rjmp	.+342    	; 0x904 <MahonyAHRSupdateIMU+0x486>
     7ae:	20 91 8c 00 	lds	r18, 0x008C	; 0x80008c <twoKi>
     7b2:	30 91 8d 00 	lds	r19, 0x008D	; 0x80008d <twoKi+0x1>
     7b6:	40 91 8e 00 	lds	r20, 0x008E	; 0x80008e <twoKi+0x2>
     7ba:	50 91 8f 00 	lds	r21, 0x008F	; 0x80008f <twoKi+0x3>
     7be:	40 90 7c 00 	lds	r4, 0x007C	; 0x80007c <integralFBx>
     7c2:	50 90 7d 00 	lds	r5, 0x007D	; 0x80007d <integralFBx+0x1>
     7c6:	60 90 7e 00 	lds	r6, 0x007E	; 0x80007e <integralFBx+0x2>
     7ca:	70 90 7f 00 	lds	r7, 0x007F	; 0x80007f <integralFBx+0x3>
     7ce:	69 a1       	ldd	r22, Y+33	; 0x21
     7d0:	7a a1       	ldd	r23, Y+34	; 0x22
     7d2:	8b a1       	ldd	r24, Y+35	; 0x23
     7d4:	9c a1       	ldd	r25, Y+36	; 0x24
     7d6:	0e 94 5b 16 	call	0x2cb6	; 0x2cb6 <__mulsf3>
     7da:	2d eb       	ldi	r18, 0xBD	; 189
     7dc:	37 e3       	ldi	r19, 0x37	; 55
     7de:	46 e0       	ldi	r20, 0x06	; 6
     7e0:	5c e3       	ldi	r21, 0x3C	; 60
     7e2:	0e 94 5b 16 	call	0x2cb6	; 0x2cb6 <__mulsf3>
     7e6:	a3 01       	movw	r20, r6
     7e8:	92 01       	movw	r18, r4
     7ea:	0e 94 d1 13 	call	0x27a2	; 0x27a2 <__addsf3>
     7ee:	60 93 7c 00 	sts	0x007C, r22	; 0x80007c <integralFBx>
     7f2:	70 93 7d 00 	sts	0x007D, r23	; 0x80007d <integralFBx+0x1>
     7f6:	80 93 7e 00 	sts	0x007E, r24	; 0x80007e <integralFBx+0x2>
     7fa:	90 93 7f 00 	sts	0x007F, r25	; 0x80007f <integralFBx+0x3>
     7fe:	20 91 8c 00 	lds	r18, 0x008C	; 0x80008c <twoKi>
     802:	30 91 8d 00 	lds	r19, 0x008D	; 0x80008d <twoKi+0x1>
     806:	40 91 8e 00 	lds	r20, 0x008E	; 0x80008e <twoKi+0x2>
     80a:	50 91 8f 00 	lds	r21, 0x008F	; 0x80008f <twoKi+0x3>
     80e:	40 90 78 00 	lds	r4, 0x0078	; 0x800078 <integralFBy>
     812:	50 90 79 00 	lds	r5, 0x0079	; 0x800079 <integralFBy+0x1>
     816:	60 90 7a 00 	lds	r6, 0x007A	; 0x80007a <integralFBy+0x2>
     81a:	70 90 7b 00 	lds	r7, 0x007B	; 0x80007b <integralFBy+0x3>
     81e:	c5 01       	movw	r24, r10
     820:	b4 01       	movw	r22, r8
     822:	0e 94 5b 16 	call	0x2cb6	; 0x2cb6 <__mulsf3>
     826:	2d eb       	ldi	r18, 0xBD	; 189
     828:	37 e3       	ldi	r19, 0x37	; 55
     82a:	46 e0       	ldi	r20, 0x06	; 6
     82c:	5c e3       	ldi	r21, 0x3C	; 60
     82e:	0e 94 5b 16 	call	0x2cb6	; 0x2cb6 <__mulsf3>
     832:	a3 01       	movw	r20, r6
     834:	92 01       	movw	r18, r4
     836:	0e 94 d1 13 	call	0x27a2	; 0x27a2 <__addsf3>
     83a:	60 93 78 00 	sts	0x0078, r22	; 0x800078 <integralFBy>
     83e:	70 93 79 00 	sts	0x0079, r23	; 0x800079 <integralFBy+0x1>
     842:	80 93 7a 00 	sts	0x007A, r24	; 0x80007a <integralFBy+0x2>
     846:	90 93 7b 00 	sts	0x007B, r25	; 0x80007b <integralFBy+0x3>
     84a:	20 91 8c 00 	lds	r18, 0x008C	; 0x80008c <twoKi>
     84e:	30 91 8d 00 	lds	r19, 0x008D	; 0x80008d <twoKi+0x1>
     852:	40 91 8e 00 	lds	r20, 0x008E	; 0x80008e <twoKi+0x2>
     856:	50 91 8f 00 	lds	r21, 0x008F	; 0x80008f <twoKi+0x3>
     85a:	40 90 74 00 	lds	r4, 0x0074	; 0x800074 <integralFBz>
     85e:	50 90 75 00 	lds	r5, 0x0075	; 0x800075 <integralFBz+0x1>
     862:	60 90 76 00 	lds	r6, 0x0076	; 0x800076 <integralFBz+0x2>
     866:	70 90 77 00 	lds	r7, 0x0077	; 0x800077 <integralFBz+0x3>
     86a:	c7 01       	movw	r24, r14
     86c:	b6 01       	movw	r22, r12
     86e:	0e 94 5b 16 	call	0x2cb6	; 0x2cb6 <__mulsf3>
     872:	2d eb       	ldi	r18, 0xBD	; 189
     874:	37 e3       	ldi	r19, 0x37	; 55
     876:	46 e0       	ldi	r20, 0x06	; 6
     878:	5c e3       	ldi	r21, 0x3C	; 60
     87a:	0e 94 5b 16 	call	0x2cb6	; 0x2cb6 <__mulsf3>
     87e:	a3 01       	movw	r20, r6
     880:	92 01       	movw	r18, r4
     882:	0e 94 d1 13 	call	0x27a2	; 0x27a2 <__addsf3>
     886:	60 93 74 00 	sts	0x0074, r22	; 0x800074 <integralFBz>
     88a:	70 93 75 00 	sts	0x0075, r23	; 0x800075 <integralFBz+0x1>
     88e:	80 93 76 00 	sts	0x0076, r24	; 0x800076 <integralFBz+0x2>
     892:	90 93 77 00 	sts	0x0077, r25	; 0x800077 <integralFBz+0x3>
     896:	20 91 7c 00 	lds	r18, 0x007C	; 0x80007c <integralFBx>
     89a:	30 91 7d 00 	lds	r19, 0x007D	; 0x80007d <integralFBx+0x1>
     89e:	40 91 7e 00 	lds	r20, 0x007E	; 0x80007e <integralFBx+0x2>
     8a2:	50 91 7f 00 	lds	r21, 0x007F	; 0x80007f <integralFBx+0x3>
     8a6:	69 85       	ldd	r22, Y+9	; 0x09
     8a8:	7a 85       	ldd	r23, Y+10	; 0x0a
     8aa:	8b 85       	ldd	r24, Y+11	; 0x0b
     8ac:	9c 85       	ldd	r25, Y+12	; 0x0c
     8ae:	0e 94 d1 13 	call	0x27a2	; 0x27a2 <__addsf3>
     8b2:	69 87       	std	Y+9, r22	; 0x09
     8b4:	7a 87       	std	Y+10, r23	; 0x0a
     8b6:	8b 87       	std	Y+11, r24	; 0x0b
     8b8:	9c 87       	std	Y+12, r25	; 0x0c
     8ba:	20 91 78 00 	lds	r18, 0x0078	; 0x800078 <integralFBy>
     8be:	30 91 79 00 	lds	r19, 0x0079	; 0x800079 <integralFBy+0x1>
     8c2:	40 91 7a 00 	lds	r20, 0x007A	; 0x80007a <integralFBy+0x2>
     8c6:	50 91 7b 00 	lds	r21, 0x007B	; 0x80007b <integralFBy+0x3>
     8ca:	6d 85       	ldd	r22, Y+13	; 0x0d
     8cc:	7e 85       	ldd	r23, Y+14	; 0x0e
     8ce:	8f 85       	ldd	r24, Y+15	; 0x0f
     8d0:	98 89       	ldd	r25, Y+16	; 0x10
     8d2:	0e 94 d1 13 	call	0x27a2	; 0x27a2 <__addsf3>
     8d6:	6d 87       	std	Y+13, r22	; 0x0d
     8d8:	7e 87       	std	Y+14, r23	; 0x0e
     8da:	8f 87       	std	Y+15, r24	; 0x0f
     8dc:	98 8b       	std	Y+16, r25	; 0x10
     8de:	20 91 74 00 	lds	r18, 0x0074	; 0x800074 <integralFBz>
     8e2:	30 91 75 00 	lds	r19, 0x0075	; 0x800075 <integralFBz+0x1>
     8e6:	40 91 76 00 	lds	r20, 0x0076	; 0x800076 <integralFBz+0x2>
     8ea:	50 91 77 00 	lds	r21, 0x0077	; 0x800077 <integralFBz+0x3>
     8ee:	69 89       	ldd	r22, Y+17	; 0x11
     8f0:	7a 89       	ldd	r23, Y+18	; 0x12
     8f2:	8b 89       	ldd	r24, Y+19	; 0x13
     8f4:	9c 89       	ldd	r25, Y+20	; 0x14
     8f6:	0e 94 d1 13 	call	0x27a2	; 0x27a2 <__addsf3>
     8fa:	69 8b       	std	Y+17, r22	; 0x11
     8fc:	7a 8b       	std	Y+18, r23	; 0x12
     8fe:	8b 8b       	std	Y+19, r24	; 0x13
     900:	9c 8b       	std	Y+20, r25	; 0x14
     902:	18 c0       	rjmp	.+48     	; 0x934 <MahonyAHRSupdateIMU+0x4b6>
     904:	10 92 7c 00 	sts	0x007C, r1	; 0x80007c <integralFBx>
     908:	10 92 7d 00 	sts	0x007D, r1	; 0x80007d <integralFBx+0x1>
     90c:	10 92 7e 00 	sts	0x007E, r1	; 0x80007e <integralFBx+0x2>
     910:	10 92 7f 00 	sts	0x007F, r1	; 0x80007f <integralFBx+0x3>
     914:	10 92 78 00 	sts	0x0078, r1	; 0x800078 <integralFBy>
     918:	10 92 79 00 	sts	0x0079, r1	; 0x800079 <integralFBy+0x1>
     91c:	10 92 7a 00 	sts	0x007A, r1	; 0x80007a <integralFBy+0x2>
     920:	10 92 7b 00 	sts	0x007B, r1	; 0x80007b <integralFBy+0x3>
     924:	10 92 74 00 	sts	0x0074, r1	; 0x800074 <integralFBz>
     928:	10 92 75 00 	sts	0x0075, r1	; 0x800075 <integralFBz+0x1>
     92c:	10 92 76 00 	sts	0x0076, r1	; 0x800076 <integralFBz+0x2>
     930:	10 92 77 00 	sts	0x0077, r1	; 0x800077 <integralFBz+0x3>
     934:	20 91 64 00 	lds	r18, 0x0064	; 0x800064 <twoKp>
     938:	30 91 65 00 	lds	r19, 0x0065	; 0x800065 <twoKp+0x1>
     93c:	40 91 66 00 	lds	r20, 0x0066	; 0x800066 <twoKp+0x2>
     940:	50 91 67 00 	lds	r21, 0x0067	; 0x800067 <twoKp+0x3>
     944:	69 a1       	ldd	r22, Y+33	; 0x21
     946:	7a a1       	ldd	r23, Y+34	; 0x22
     948:	8b a1       	ldd	r24, Y+35	; 0x23
     94a:	9c a1       	ldd	r25, Y+36	; 0x24
     94c:	0e 94 5b 16 	call	0x2cb6	; 0x2cb6 <__mulsf3>
     950:	9b 01       	movw	r18, r22
     952:	ac 01       	movw	r20, r24
     954:	69 85       	ldd	r22, Y+9	; 0x09
     956:	7a 85       	ldd	r23, Y+10	; 0x0a
     958:	8b 85       	ldd	r24, Y+11	; 0x0b
     95a:	9c 85       	ldd	r25, Y+12	; 0x0c
     95c:	0e 94 d1 13 	call	0x27a2	; 0x27a2 <__addsf3>
     960:	69 87       	std	Y+9, r22	; 0x09
     962:	7a 87       	std	Y+10, r23	; 0x0a
     964:	8b 87       	std	Y+11, r24	; 0x0b
     966:	9c 87       	std	Y+12, r25	; 0x0c
     968:	20 91 64 00 	lds	r18, 0x0064	; 0x800064 <twoKp>
     96c:	30 91 65 00 	lds	r19, 0x0065	; 0x800065 <twoKp+0x1>
     970:	40 91 66 00 	lds	r20, 0x0066	; 0x800066 <twoKp+0x2>
     974:	50 91 67 00 	lds	r21, 0x0067	; 0x800067 <twoKp+0x3>
     978:	c5 01       	movw	r24, r10
     97a:	b4 01       	movw	r22, r8
     97c:	0e 94 5b 16 	call	0x2cb6	; 0x2cb6 <__mulsf3>
     980:	9b 01       	movw	r18, r22
     982:	ac 01       	movw	r20, r24
     984:	6d 85       	ldd	r22, Y+13	; 0x0d
     986:	7e 85       	ldd	r23, Y+14	; 0x0e
     988:	8f 85       	ldd	r24, Y+15	; 0x0f
     98a:	98 89       	ldd	r25, Y+16	; 0x10
     98c:	0e 94 d1 13 	call	0x27a2	; 0x27a2 <__addsf3>
     990:	6d 87       	std	Y+13, r22	; 0x0d
     992:	7e 87       	std	Y+14, r23	; 0x0e
     994:	8f 87       	std	Y+15, r24	; 0x0f
     996:	98 8b       	std	Y+16, r25	; 0x10
     998:	20 91 64 00 	lds	r18, 0x0064	; 0x800064 <twoKp>
     99c:	30 91 65 00 	lds	r19, 0x0065	; 0x800065 <twoKp+0x1>
     9a0:	40 91 66 00 	lds	r20, 0x0066	; 0x800066 <twoKp+0x2>
     9a4:	50 91 67 00 	lds	r21, 0x0067	; 0x800067 <twoKp+0x3>
     9a8:	c7 01       	movw	r24, r14
     9aa:	b6 01       	movw	r22, r12
     9ac:	0e 94 5b 16 	call	0x2cb6	; 0x2cb6 <__mulsf3>
     9b0:	9b 01       	movw	r18, r22
     9b2:	ac 01       	movw	r20, r24
     9b4:	69 89       	ldd	r22, Y+17	; 0x11
     9b6:	7a 89       	ldd	r23, Y+18	; 0x12
     9b8:	8b 89       	ldd	r24, Y+19	; 0x13
     9ba:	9c 89       	ldd	r25, Y+20	; 0x14
     9bc:	0e 94 d1 13 	call	0x27a2	; 0x27a2 <__addsf3>
     9c0:	69 8b       	std	Y+17, r22	; 0x11
     9c2:	7a 8b       	std	Y+18, r23	; 0x12
     9c4:	8b 8b       	std	Y+19, r24	; 0x13
     9c6:	9c 8b       	std	Y+20, r25	; 0x14
     9c8:	2d eb       	ldi	r18, 0xBD	; 189
     9ca:	37 e3       	ldi	r19, 0x37	; 55
     9cc:	46 e8       	ldi	r20, 0x86	; 134
     9ce:	5b e3       	ldi	r21, 0x3B	; 59
     9d0:	69 85       	ldd	r22, Y+9	; 0x09
     9d2:	7a 85       	ldd	r23, Y+10	; 0x0a
     9d4:	8b 85       	ldd	r24, Y+11	; 0x0b
     9d6:	9c 85       	ldd	r25, Y+12	; 0x0c
     9d8:	0e 94 5b 16 	call	0x2cb6	; 0x2cb6 <__mulsf3>
     9dc:	69 87       	std	Y+9, r22	; 0x09
     9de:	7a 87       	std	Y+10, r23	; 0x0a
     9e0:	8b 87       	std	Y+11, r24	; 0x0b
     9e2:	9c 87       	std	Y+12, r25	; 0x0c
     9e4:	2d eb       	ldi	r18, 0xBD	; 189
     9e6:	37 e3       	ldi	r19, 0x37	; 55
     9e8:	46 e8       	ldi	r20, 0x86	; 134
     9ea:	5b e3       	ldi	r21, 0x3B	; 59
     9ec:	6d 85       	ldd	r22, Y+13	; 0x0d
     9ee:	7e 85       	ldd	r23, Y+14	; 0x0e
     9f0:	8f 85       	ldd	r24, Y+15	; 0x0f
     9f2:	98 89       	ldd	r25, Y+16	; 0x10
     9f4:	0e 94 5b 16 	call	0x2cb6	; 0x2cb6 <__mulsf3>
     9f8:	6d 87       	std	Y+13, r22	; 0x0d
     9fa:	7e 87       	std	Y+14, r23	; 0x0e
     9fc:	8f 87       	std	Y+15, r24	; 0x0f
     9fe:	98 8b       	std	Y+16, r25	; 0x10
     a00:	2d eb       	ldi	r18, 0xBD	; 189
     a02:	37 e3       	ldi	r19, 0x37	; 55
     a04:	46 e8       	ldi	r20, 0x86	; 134
     a06:	5b e3       	ldi	r21, 0x3B	; 59
     a08:	69 89       	ldd	r22, Y+17	; 0x11
     a0a:	7a 89       	ldd	r23, Y+18	; 0x12
     a0c:	8b 89       	ldd	r24, Y+19	; 0x13
     a0e:	9c 89       	ldd	r25, Y+20	; 0x14
     a10:	0e 94 5b 16 	call	0x2cb6	; 0x2cb6 <__mulsf3>
     a14:	69 8b       	std	Y+17, r22	; 0x11
     a16:	7a 8b       	std	Y+18, r23	; 0x12
     a18:	8b 8b       	std	Y+19, r24	; 0x13
     a1a:	9c 8b       	std	Y+20, r25	; 0x14
     a1c:	e0 90 60 00 	lds	r14, 0x0060	; 0x800060 <__data_start>
     a20:	f0 90 61 00 	lds	r15, 0x0061	; 0x800061 <__data_start+0x1>
     a24:	00 91 62 00 	lds	r16, 0x0062	; 0x800062 <__data_start+0x2>
     a28:	10 91 63 00 	lds	r17, 0x0063	; 0x800063 <__data_start+0x3>
     a2c:	ed 82       	std	Y+5, r14	; 0x05
     a2e:	fe 82       	std	Y+6, r15	; 0x06
     a30:	0f 83       	std	Y+7, r16	; 0x07
     a32:	18 87       	std	Y+8, r17	; 0x08
     a34:	80 90 88 00 	lds	r8, 0x0088	; 0x800088 <q1>
     a38:	90 90 89 00 	lds	r9, 0x0089	; 0x800089 <q1+0x1>
     a3c:	a0 90 8a 00 	lds	r10, 0x008A	; 0x80008a <q1+0x2>
     a40:	b0 90 8b 00 	lds	r11, 0x008B	; 0x80008b <q1+0x3>
     a44:	e0 90 84 00 	lds	r14, 0x0084	; 0x800084 <q2>
     a48:	f0 90 85 00 	lds	r15, 0x0085	; 0x800085 <q2+0x1>
     a4c:	00 91 86 00 	lds	r16, 0x0086	; 0x800086 <q2+0x2>
     a50:	10 91 87 00 	lds	r17, 0x0087	; 0x800087 <q2+0x3>
     a54:	ed 8a       	std	Y+21, r14	; 0x15
     a56:	fe 8a       	std	Y+22, r15	; 0x16
     a58:	0f 8b       	std	Y+23, r16	; 0x17
     a5a:	18 8f       	std	Y+24, r17	; 0x18
     a5c:	40 90 80 00 	lds	r4, 0x0080	; 0x800080 <q3>
     a60:	50 90 81 00 	lds	r5, 0x0081	; 0x800081 <q3+0x1>
     a64:	60 90 82 00 	lds	r6, 0x0082	; 0x800082 <q3+0x2>
     a68:	70 90 83 00 	lds	r7, 0x0083	; 0x800083 <q3+0x3>
     a6c:	c0 90 60 00 	lds	r12, 0x0060	; 0x800060 <__data_start>
     a70:	d0 90 61 00 	lds	r13, 0x0061	; 0x800061 <__data_start+0x1>
     a74:	e0 90 62 00 	lds	r14, 0x0062	; 0x800062 <__data_start+0x2>
     a78:	f0 90 63 00 	lds	r15, 0x0063	; 0x800063 <__data_start+0x3>
     a7c:	c5 01       	movw	r24, r10
     a7e:	b4 01       	movw	r22, r8
     a80:	90 58       	subi	r25, 0x80	; 128
     a82:	29 85       	ldd	r18, Y+9	; 0x09
     a84:	3a 85       	ldd	r19, Y+10	; 0x0a
     a86:	4b 85       	ldd	r20, Y+11	; 0x0b
     a88:	5c 85       	ldd	r21, Y+12	; 0x0c
     a8a:	0e 94 5b 16 	call	0x2cb6	; 0x2cb6 <__mulsf3>
     a8e:	69 83       	std	Y+1, r22	; 0x01
     a90:	7a 83       	std	Y+2, r23	; 0x02
     a92:	8b 83       	std	Y+3, r24	; 0x03
     a94:	9c 83       	std	Y+4, r25	; 0x04
     a96:	2d 89       	ldd	r18, Y+21	; 0x15
     a98:	3e 89       	ldd	r19, Y+22	; 0x16
     a9a:	4f 89       	ldd	r20, Y+23	; 0x17
     a9c:	58 8d       	ldd	r21, Y+24	; 0x18
     a9e:	6d 85       	ldd	r22, Y+13	; 0x0d
     aa0:	7e 85       	ldd	r23, Y+14	; 0x0e
     aa2:	8f 85       	ldd	r24, Y+15	; 0x0f
     aa4:	98 89       	ldd	r25, Y+16	; 0x10
     aa6:	0e 94 5b 16 	call	0x2cb6	; 0x2cb6 <__mulsf3>
     aaa:	9b 01       	movw	r18, r22
     aac:	ac 01       	movw	r20, r24
     aae:	69 81       	ldd	r22, Y+1	; 0x01
     ab0:	7a 81       	ldd	r23, Y+2	; 0x02
     ab2:	8b 81       	ldd	r24, Y+3	; 0x03
     ab4:	9c 81       	ldd	r25, Y+4	; 0x04
     ab6:	0e 94 d0 13 	call	0x27a0	; 0x27a0 <__subsf3>
     aba:	69 83       	std	Y+1, r22	; 0x01
     abc:	7a 83       	std	Y+2, r23	; 0x02
     abe:	8b 83       	std	Y+3, r24	; 0x03
     ac0:	9c 83       	std	Y+4, r25	; 0x04
     ac2:	a3 01       	movw	r20, r6
     ac4:	92 01       	movw	r18, r4
     ac6:	69 89       	ldd	r22, Y+17	; 0x11
     ac8:	7a 89       	ldd	r23, Y+18	; 0x12
     aca:	8b 89       	ldd	r24, Y+19	; 0x13
     acc:	9c 89       	ldd	r25, Y+20	; 0x14
     ace:	0e 94 5b 16 	call	0x2cb6	; 0x2cb6 <__mulsf3>
     ad2:	9b 01       	movw	r18, r22
     ad4:	ac 01       	movw	r20, r24
     ad6:	69 81       	ldd	r22, Y+1	; 0x01
     ad8:	7a 81       	ldd	r23, Y+2	; 0x02
     ada:	8b 81       	ldd	r24, Y+3	; 0x03
     adc:	9c 81       	ldd	r25, Y+4	; 0x04
     ade:	0e 94 d0 13 	call	0x27a0	; 0x27a0 <__subsf3>
     ae2:	a7 01       	movw	r20, r14
     ae4:	96 01       	movw	r18, r12
     ae6:	0e 94 d1 13 	call	0x27a2	; 0x27a2 <__addsf3>
     aea:	60 93 60 00 	sts	0x0060, r22	; 0x800060 <__data_start>
     aee:	70 93 61 00 	sts	0x0061, r23	; 0x800061 <__data_start+0x1>
     af2:	80 93 62 00 	sts	0x0062, r24	; 0x800062 <__data_start+0x2>
     af6:	90 93 63 00 	sts	0x0063, r25	; 0x800063 <__data_start+0x3>
     afa:	40 90 80 00 	lds	r4, 0x0080	; 0x800080 <q3>
     afe:	50 90 81 00 	lds	r5, 0x0081	; 0x800081 <q3+0x1>
     b02:	60 90 82 00 	lds	r6, 0x0082	; 0x800082 <q3+0x2>
     b06:	70 90 83 00 	lds	r7, 0x0083	; 0x800083 <q3+0x3>
     b0a:	c0 90 88 00 	lds	r12, 0x0088	; 0x800088 <q1>
     b0e:	d0 90 89 00 	lds	r13, 0x0089	; 0x800089 <q1+0x1>
     b12:	e0 90 8a 00 	lds	r14, 0x008A	; 0x80008a <q1+0x2>
     b16:	f0 90 8b 00 	lds	r15, 0x008B	; 0x80008b <q1+0x3>
     b1a:	2d 81       	ldd	r18, Y+5	; 0x05
     b1c:	3e 81       	ldd	r19, Y+6	; 0x06
     b1e:	4f 81       	ldd	r20, Y+7	; 0x07
     b20:	58 85       	ldd	r21, Y+8	; 0x08
     b22:	69 85       	ldd	r22, Y+9	; 0x09
     b24:	7a 85       	ldd	r23, Y+10	; 0x0a
     b26:	8b 85       	ldd	r24, Y+11	; 0x0b
     b28:	9c 85       	ldd	r25, Y+12	; 0x0c
     b2a:	0e 94 5b 16 	call	0x2cb6	; 0x2cb6 <__mulsf3>
     b2e:	69 83       	std	Y+1, r22	; 0x01
     b30:	7a 83       	std	Y+2, r23	; 0x02
     b32:	8b 83       	std	Y+3, r24	; 0x03
     b34:	9c 83       	std	Y+4, r25	; 0x04
     b36:	2d 89       	ldd	r18, Y+21	; 0x15
     b38:	3e 89       	ldd	r19, Y+22	; 0x16
     b3a:	4f 89       	ldd	r20, Y+23	; 0x17
     b3c:	58 8d       	ldd	r21, Y+24	; 0x18
     b3e:	69 89       	ldd	r22, Y+17	; 0x11
     b40:	7a 89       	ldd	r23, Y+18	; 0x12
     b42:	8b 89       	ldd	r24, Y+19	; 0x13
     b44:	9c 89       	ldd	r25, Y+20	; 0x14
     b46:	0e 94 5b 16 	call	0x2cb6	; 0x2cb6 <__mulsf3>
     b4a:	9b 01       	movw	r18, r22
     b4c:	ac 01       	movw	r20, r24
     b4e:	69 81       	ldd	r22, Y+1	; 0x01
     b50:	7a 81       	ldd	r23, Y+2	; 0x02
     b52:	8b 81       	ldd	r24, Y+3	; 0x03
     b54:	9c 81       	ldd	r25, Y+4	; 0x04
     b56:	0e 94 d1 13 	call	0x27a2	; 0x27a2 <__addsf3>
     b5a:	69 83       	std	Y+1, r22	; 0x01
     b5c:	7a 83       	std	Y+2, r23	; 0x02
     b5e:	8b 83       	std	Y+3, r24	; 0x03
     b60:	9c 83       	std	Y+4, r25	; 0x04
     b62:	a3 01       	movw	r20, r6
     b64:	92 01       	movw	r18, r4
     b66:	6d 85       	ldd	r22, Y+13	; 0x0d
     b68:	7e 85       	ldd	r23, Y+14	; 0x0e
     b6a:	8f 85       	ldd	r24, Y+15	; 0x0f
     b6c:	98 89       	ldd	r25, Y+16	; 0x10
     b6e:	0e 94 5b 16 	call	0x2cb6	; 0x2cb6 <__mulsf3>
     b72:	9b 01       	movw	r18, r22
     b74:	ac 01       	movw	r20, r24
     b76:	69 81       	ldd	r22, Y+1	; 0x01
     b78:	7a 81       	ldd	r23, Y+2	; 0x02
     b7a:	8b 81       	ldd	r24, Y+3	; 0x03
     b7c:	9c 81       	ldd	r25, Y+4	; 0x04
     b7e:	0e 94 d0 13 	call	0x27a0	; 0x27a0 <__subsf3>
     b82:	a7 01       	movw	r20, r14
     b84:	96 01       	movw	r18, r12
     b86:	0e 94 d1 13 	call	0x27a2	; 0x27a2 <__addsf3>
     b8a:	60 93 88 00 	sts	0x0088, r22	; 0x800088 <q1>
     b8e:	70 93 89 00 	sts	0x0089, r23	; 0x800089 <q1+0x1>
     b92:	80 93 8a 00 	sts	0x008A, r24	; 0x80008a <q1+0x2>
     b96:	90 93 8b 00 	sts	0x008B, r25	; 0x80008b <q1+0x3>
     b9a:	40 90 80 00 	lds	r4, 0x0080	; 0x800080 <q3>
     b9e:	50 90 81 00 	lds	r5, 0x0081	; 0x800081 <q3+0x1>
     ba2:	60 90 82 00 	lds	r6, 0x0082	; 0x800082 <q3+0x2>
     ba6:	70 90 83 00 	lds	r7, 0x0083	; 0x800083 <q3+0x3>
     baa:	c0 90 84 00 	lds	r12, 0x0084	; 0x800084 <q2>
     bae:	d0 90 85 00 	lds	r13, 0x0085	; 0x800085 <q2+0x1>
     bb2:	e0 90 86 00 	lds	r14, 0x0086	; 0x800086 <q2+0x2>
     bb6:	f0 90 87 00 	lds	r15, 0x0087	; 0x800087 <q2+0x3>
     bba:	2d 81       	ldd	r18, Y+5	; 0x05
     bbc:	3e 81       	ldd	r19, Y+6	; 0x06
     bbe:	4f 81       	ldd	r20, Y+7	; 0x07
     bc0:	58 85       	ldd	r21, Y+8	; 0x08
     bc2:	6d 85       	ldd	r22, Y+13	; 0x0d
     bc4:	7e 85       	ldd	r23, Y+14	; 0x0e
     bc6:	8f 85       	ldd	r24, Y+15	; 0x0f
     bc8:	98 89       	ldd	r25, Y+16	; 0x10
     bca:	0e 94 5b 16 	call	0x2cb6	; 0x2cb6 <__mulsf3>
     bce:	69 83       	std	Y+1, r22	; 0x01
     bd0:	7a 83       	std	Y+2, r23	; 0x02
     bd2:	8b 83       	std	Y+3, r24	; 0x03
     bd4:	9c 83       	std	Y+4, r25	; 0x04
     bd6:	a5 01       	movw	r20, r10
     bd8:	94 01       	movw	r18, r8
     bda:	69 89       	ldd	r22, Y+17	; 0x11
     bdc:	7a 89       	ldd	r23, Y+18	; 0x12
     bde:	8b 89       	ldd	r24, Y+19	; 0x13
     be0:	9c 89       	ldd	r25, Y+20	; 0x14
     be2:	0e 94 5b 16 	call	0x2cb6	; 0x2cb6 <__mulsf3>
     be6:	9b 01       	movw	r18, r22
     be8:	ac 01       	movw	r20, r24
     bea:	69 81       	ldd	r22, Y+1	; 0x01
     bec:	7a 81       	ldd	r23, Y+2	; 0x02
     bee:	8b 81       	ldd	r24, Y+3	; 0x03
     bf0:	9c 81       	ldd	r25, Y+4	; 0x04
     bf2:	0e 94 d0 13 	call	0x27a0	; 0x27a0 <__subsf3>
     bf6:	69 83       	std	Y+1, r22	; 0x01
     bf8:	7a 83       	std	Y+2, r23	; 0x02
     bfa:	8b 83       	std	Y+3, r24	; 0x03
     bfc:	9c 83       	std	Y+4, r25	; 0x04
     bfe:	a3 01       	movw	r20, r6
     c00:	92 01       	movw	r18, r4
     c02:	69 85       	ldd	r22, Y+9	; 0x09
     c04:	7a 85       	ldd	r23, Y+10	; 0x0a
     c06:	8b 85       	ldd	r24, Y+11	; 0x0b
     c08:	9c 85       	ldd	r25, Y+12	; 0x0c
     c0a:	0e 94 5b 16 	call	0x2cb6	; 0x2cb6 <__mulsf3>
     c0e:	9b 01       	movw	r18, r22
     c10:	ac 01       	movw	r20, r24
     c12:	69 81       	ldd	r22, Y+1	; 0x01
     c14:	7a 81       	ldd	r23, Y+2	; 0x02
     c16:	8b 81       	ldd	r24, Y+3	; 0x03
     c18:	9c 81       	ldd	r25, Y+4	; 0x04
     c1a:	0e 94 d1 13 	call	0x27a2	; 0x27a2 <__addsf3>
     c1e:	a7 01       	movw	r20, r14
     c20:	96 01       	movw	r18, r12
     c22:	0e 94 d1 13 	call	0x27a2	; 0x27a2 <__addsf3>
     c26:	60 93 84 00 	sts	0x0084, r22	; 0x800084 <q2>
     c2a:	70 93 85 00 	sts	0x0085, r23	; 0x800085 <q2+0x1>
     c2e:	80 93 86 00 	sts	0x0086, r24	; 0x800086 <q2+0x2>
     c32:	90 93 87 00 	sts	0x0087, r25	; 0x800087 <q2+0x3>
     c36:	c0 90 80 00 	lds	r12, 0x0080	; 0x800080 <q3>
     c3a:	d0 90 81 00 	lds	r13, 0x0081	; 0x800081 <q3+0x1>
     c3e:	e0 90 82 00 	lds	r14, 0x0082	; 0x800082 <q3+0x2>
     c42:	f0 90 83 00 	lds	r15, 0x0083	; 0x800083 <q3+0x3>
     c46:	2d 81       	ldd	r18, Y+5	; 0x05
     c48:	3e 81       	ldd	r19, Y+6	; 0x06
     c4a:	4f 81       	ldd	r20, Y+7	; 0x07
     c4c:	58 85       	ldd	r21, Y+8	; 0x08
     c4e:	69 89       	ldd	r22, Y+17	; 0x11
     c50:	7a 89       	ldd	r23, Y+18	; 0x12
     c52:	8b 89       	ldd	r24, Y+19	; 0x13
     c54:	9c 89       	ldd	r25, Y+20	; 0x14
     c56:	0e 94 5b 16 	call	0x2cb6	; 0x2cb6 <__mulsf3>
     c5a:	2b 01       	movw	r4, r22
     c5c:	3c 01       	movw	r6, r24
     c5e:	a5 01       	movw	r20, r10
     c60:	94 01       	movw	r18, r8
     c62:	6d 85       	ldd	r22, Y+13	; 0x0d
     c64:	7e 85       	ldd	r23, Y+14	; 0x0e
     c66:	8f 85       	ldd	r24, Y+15	; 0x0f
     c68:	98 89       	ldd	r25, Y+16	; 0x10
     c6a:	0e 94 5b 16 	call	0x2cb6	; 0x2cb6 <__mulsf3>
     c6e:	9b 01       	movw	r18, r22
     c70:	ac 01       	movw	r20, r24
     c72:	c3 01       	movw	r24, r6
     c74:	b2 01       	movw	r22, r4
     c76:	0e 94 d1 13 	call	0x27a2	; 0x27a2 <__addsf3>
     c7a:	4b 01       	movw	r8, r22
     c7c:	5c 01       	movw	r10, r24
     c7e:	2d 89       	ldd	r18, Y+21	; 0x15
     c80:	3e 89       	ldd	r19, Y+22	; 0x16
     c82:	4f 89       	ldd	r20, Y+23	; 0x17
     c84:	58 8d       	ldd	r21, Y+24	; 0x18
     c86:	69 85       	ldd	r22, Y+9	; 0x09
     c88:	7a 85       	ldd	r23, Y+10	; 0x0a
     c8a:	8b 85       	ldd	r24, Y+11	; 0x0b
     c8c:	9c 85       	ldd	r25, Y+12	; 0x0c
     c8e:	0e 94 5b 16 	call	0x2cb6	; 0x2cb6 <__mulsf3>
     c92:	9b 01       	movw	r18, r22
     c94:	ac 01       	movw	r20, r24
     c96:	c5 01       	movw	r24, r10
     c98:	b4 01       	movw	r22, r8
     c9a:	0e 94 d0 13 	call	0x27a0	; 0x27a0 <__subsf3>
     c9e:	a7 01       	movw	r20, r14
     ca0:	96 01       	movw	r18, r12
     ca2:	0e 94 d1 13 	call	0x27a2	; 0x27a2 <__addsf3>
     ca6:	60 93 80 00 	sts	0x0080, r22	; 0x800080 <q3>
     caa:	70 93 81 00 	sts	0x0081, r23	; 0x800081 <q3+0x1>
     cae:	80 93 82 00 	sts	0x0082, r24	; 0x800082 <q3+0x2>
     cb2:	90 93 83 00 	sts	0x0083, r25	; 0x800083 <q3+0x3>
     cb6:	60 91 60 00 	lds	r22, 0x0060	; 0x800060 <__data_start>
     cba:	70 91 61 00 	lds	r23, 0x0061	; 0x800061 <__data_start+0x1>
     cbe:	80 91 62 00 	lds	r24, 0x0062	; 0x800062 <__data_start+0x2>
     cc2:	90 91 63 00 	lds	r25, 0x0063	; 0x800063 <__data_start+0x3>
     cc6:	20 91 60 00 	lds	r18, 0x0060	; 0x800060 <__data_start>
     cca:	30 91 61 00 	lds	r19, 0x0061	; 0x800061 <__data_start+0x1>
     cce:	40 91 62 00 	lds	r20, 0x0062	; 0x800062 <__data_start+0x2>
     cd2:	50 91 63 00 	lds	r21, 0x0063	; 0x800063 <__data_start+0x3>
     cd6:	80 90 88 00 	lds	r8, 0x0088	; 0x800088 <q1>
     cda:	90 90 89 00 	lds	r9, 0x0089	; 0x800089 <q1+0x1>
     cde:	a0 90 8a 00 	lds	r10, 0x008A	; 0x80008a <q1+0x2>
     ce2:	b0 90 8b 00 	lds	r11, 0x008B	; 0x80008b <q1+0x3>
     ce6:	40 90 88 00 	lds	r4, 0x0088	; 0x800088 <q1>
     cea:	50 90 89 00 	lds	r5, 0x0089	; 0x800089 <q1+0x1>
     cee:	60 90 8a 00 	lds	r6, 0x008A	; 0x80008a <q1+0x2>
     cf2:	70 90 8b 00 	lds	r7, 0x008B	; 0x80008b <q1+0x3>
     cf6:	e0 90 84 00 	lds	r14, 0x0084	; 0x800084 <q2>
     cfa:	f0 90 85 00 	lds	r15, 0x0085	; 0x800085 <q2+0x1>
     cfe:	00 91 86 00 	lds	r16, 0x0086	; 0x800086 <q2+0x2>
     d02:	10 91 87 00 	lds	r17, 0x0087	; 0x800087 <q2+0x3>
     d06:	e9 86       	std	Y+9, r14	; 0x09
     d08:	fa 86       	std	Y+10, r15	; 0x0a
     d0a:	0b 87       	std	Y+11, r16	; 0x0b
     d0c:	1c 87       	std	Y+12, r17	; 0x0c
     d0e:	e0 90 84 00 	lds	r14, 0x0084	; 0x800084 <q2>
     d12:	f0 90 85 00 	lds	r15, 0x0085	; 0x800085 <q2+0x1>
     d16:	00 91 86 00 	lds	r16, 0x0086	; 0x800086 <q2+0x2>
     d1a:	10 91 87 00 	lds	r17, 0x0087	; 0x800087 <q2+0x3>
     d1e:	ed 86       	std	Y+13, r14	; 0x0d
     d20:	fe 86       	std	Y+14, r15	; 0x0e
     d22:	0f 87       	std	Y+15, r16	; 0x0f
     d24:	18 8b       	std	Y+16, r17	; 0x10
     d26:	e0 90 80 00 	lds	r14, 0x0080	; 0x800080 <q3>
     d2a:	f0 90 81 00 	lds	r15, 0x0081	; 0x800081 <q3+0x1>
     d2e:	00 91 82 00 	lds	r16, 0x0082	; 0x800082 <q3+0x2>
     d32:	10 91 83 00 	lds	r17, 0x0083	; 0x800083 <q3+0x3>
     d36:	e9 82       	std	Y+1, r14	; 0x01
     d38:	fa 82       	std	Y+2, r15	; 0x02
     d3a:	0b 83       	std	Y+3, r16	; 0x03
     d3c:	1c 83       	std	Y+4, r17	; 0x04
     d3e:	e0 90 80 00 	lds	r14, 0x0080	; 0x800080 <q3>
     d42:	f0 90 81 00 	lds	r15, 0x0081	; 0x800081 <q3+0x1>
     d46:	00 91 82 00 	lds	r16, 0x0082	; 0x800082 <q3+0x2>
     d4a:	10 91 83 00 	lds	r17, 0x0083	; 0x800083 <q3+0x3>
     d4e:	e9 8a       	std	Y+17, r14	; 0x11
     d50:	fa 8a       	std	Y+18, r15	; 0x12
     d52:	0b 8b       	std	Y+19, r16	; 0x13
     d54:	1c 8b       	std	Y+20, r17	; 0x14
     d56:	0e 94 5b 16 	call	0x2cb6	; 0x2cb6 <__mulsf3>
     d5a:	6b 01       	movw	r12, r22
     d5c:	7c 01       	movw	r14, r24
     d5e:	a3 01       	movw	r20, r6
     d60:	92 01       	movw	r18, r4
     d62:	c5 01       	movw	r24, r10
     d64:	b4 01       	movw	r22, r8
     d66:	0e 94 5b 16 	call	0x2cb6	; 0x2cb6 <__mulsf3>
     d6a:	9b 01       	movw	r18, r22
     d6c:	ac 01       	movw	r20, r24
     d6e:	c7 01       	movw	r24, r14
     d70:	b6 01       	movw	r22, r12
     d72:	0e 94 d1 13 	call	0x27a2	; 0x27a2 <__addsf3>
     d76:	4b 01       	movw	r8, r22
     d78:	5c 01       	movw	r10, r24
     d7a:	2d 85       	ldd	r18, Y+13	; 0x0d
     d7c:	3e 85       	ldd	r19, Y+14	; 0x0e
     d7e:	4f 85       	ldd	r20, Y+15	; 0x0f
     d80:	58 89       	ldd	r21, Y+16	; 0x10
     d82:	69 85       	ldd	r22, Y+9	; 0x09
     d84:	7a 85       	ldd	r23, Y+10	; 0x0a
     d86:	8b 85       	ldd	r24, Y+11	; 0x0b
     d88:	9c 85       	ldd	r25, Y+12	; 0x0c
     d8a:	0e 94 5b 16 	call	0x2cb6	; 0x2cb6 <__mulsf3>
     d8e:	9b 01       	movw	r18, r22
     d90:	ac 01       	movw	r20, r24
     d92:	c5 01       	movw	r24, r10
     d94:	b4 01       	movw	r22, r8
     d96:	0e 94 d1 13 	call	0x27a2	; 0x27a2 <__addsf3>
     d9a:	4b 01       	movw	r8, r22
     d9c:	5c 01       	movw	r10, r24
     d9e:	29 89       	ldd	r18, Y+17	; 0x11
     da0:	3a 89       	ldd	r19, Y+18	; 0x12
     da2:	4b 89       	ldd	r20, Y+19	; 0x13
     da4:	5c 89       	ldd	r21, Y+20	; 0x14
     da6:	69 81       	ldd	r22, Y+1	; 0x01
     da8:	7a 81       	ldd	r23, Y+2	; 0x02
     daa:	8b 81       	ldd	r24, Y+3	; 0x03
     dac:	9c 81       	ldd	r25, Y+4	; 0x04
     dae:	0e 94 5b 16 	call	0x2cb6	; 0x2cb6 <__mulsf3>
     db2:	9b 01       	movw	r18, r22
     db4:	ac 01       	movw	r20, r24
     db6:	c5 01       	movw	r24, r10
     db8:	b4 01       	movw	r22, r8
     dba:	0e 94 d1 13 	call	0x27a2	; 0x27a2 <__addsf3>
     dbe:	0e 94 34 02 	call	0x468	; 0x468 <invSqrt>
     dc2:	6b 01       	movw	r12, r22
     dc4:	7c 01       	movw	r14, r24
     dc6:	20 91 60 00 	lds	r18, 0x0060	; 0x800060 <__data_start>
     dca:	30 91 61 00 	lds	r19, 0x0061	; 0x800061 <__data_start+0x1>
     dce:	40 91 62 00 	lds	r20, 0x0062	; 0x800062 <__data_start+0x2>
     dd2:	50 91 63 00 	lds	r21, 0x0063	; 0x800063 <__data_start+0x3>
     dd6:	0e 94 5b 16 	call	0x2cb6	; 0x2cb6 <__mulsf3>
     dda:	60 93 60 00 	sts	0x0060, r22	; 0x800060 <__data_start>
     dde:	70 93 61 00 	sts	0x0061, r23	; 0x800061 <__data_start+0x1>
     de2:	80 93 62 00 	sts	0x0062, r24	; 0x800062 <__data_start+0x2>
     de6:	90 93 63 00 	sts	0x0063, r25	; 0x800063 <__data_start+0x3>
     dea:	20 91 88 00 	lds	r18, 0x0088	; 0x800088 <q1>
     dee:	30 91 89 00 	lds	r19, 0x0089	; 0x800089 <q1+0x1>
     df2:	40 91 8a 00 	lds	r20, 0x008A	; 0x80008a <q1+0x2>
     df6:	50 91 8b 00 	lds	r21, 0x008B	; 0x80008b <q1+0x3>
     dfa:	c7 01       	movw	r24, r14
     dfc:	b6 01       	movw	r22, r12
     dfe:	0e 94 5b 16 	call	0x2cb6	; 0x2cb6 <__mulsf3>
     e02:	60 93 88 00 	sts	0x0088, r22	; 0x800088 <q1>
     e06:	70 93 89 00 	sts	0x0089, r23	; 0x800089 <q1+0x1>
     e0a:	80 93 8a 00 	sts	0x008A, r24	; 0x80008a <q1+0x2>
     e0e:	90 93 8b 00 	sts	0x008B, r25	; 0x80008b <q1+0x3>
     e12:	20 91 84 00 	lds	r18, 0x0084	; 0x800084 <q2>
     e16:	30 91 85 00 	lds	r19, 0x0085	; 0x800085 <q2+0x1>
     e1a:	40 91 86 00 	lds	r20, 0x0086	; 0x800086 <q2+0x2>
     e1e:	50 91 87 00 	lds	r21, 0x0087	; 0x800087 <q2+0x3>
     e22:	c7 01       	movw	r24, r14
     e24:	b6 01       	movw	r22, r12
     e26:	0e 94 5b 16 	call	0x2cb6	; 0x2cb6 <__mulsf3>
     e2a:	60 93 84 00 	sts	0x0084, r22	; 0x800084 <q2>
     e2e:	70 93 85 00 	sts	0x0085, r23	; 0x800085 <q2+0x1>
     e32:	80 93 86 00 	sts	0x0086, r24	; 0x800086 <q2+0x2>
     e36:	90 93 87 00 	sts	0x0087, r25	; 0x800087 <q2+0x3>
     e3a:	20 91 80 00 	lds	r18, 0x0080	; 0x800080 <q3>
     e3e:	30 91 81 00 	lds	r19, 0x0081	; 0x800081 <q3+0x1>
     e42:	40 91 82 00 	lds	r20, 0x0082	; 0x800082 <q3+0x2>
     e46:	50 91 83 00 	lds	r21, 0x0083	; 0x800083 <q3+0x3>
     e4a:	c7 01       	movw	r24, r14
     e4c:	b6 01       	movw	r22, r12
     e4e:	0e 94 5b 16 	call	0x2cb6	; 0x2cb6 <__mulsf3>
     e52:	60 93 80 00 	sts	0x0080, r22	; 0x800080 <q3>
     e56:	70 93 81 00 	sts	0x0081, r23	; 0x800081 <q3+0x1>
     e5a:	80 93 82 00 	sts	0x0082, r24	; 0x800082 <q3+0x2>
     e5e:	90 93 83 00 	sts	0x0083, r25	; 0x800083 <q3+0x3>
     e62:	a4 96       	adiw	r28, 0x24	; 36
     e64:	0f b6       	in	r0, 0x3f	; 63
     e66:	f8 94       	cli
     e68:	de bf       	out	0x3e, r29	; 62
     e6a:	0f be       	out	0x3f, r0	; 63
     e6c:	cd bf       	out	0x3d, r28	; 61
     e6e:	df 91       	pop	r29
     e70:	cf 91       	pop	r28
     e72:	1f 91       	pop	r17
     e74:	0f 91       	pop	r16
     e76:	ff 90       	pop	r15
     e78:	ef 90       	pop	r14
     e7a:	df 90       	pop	r13
     e7c:	cf 90       	pop	r12
     e7e:	bf 90       	pop	r11
     e80:	af 90       	pop	r10
     e82:	9f 90       	pop	r9
     e84:	8f 90       	pop	r8
     e86:	7f 90       	pop	r7
     e88:	6f 90       	pop	r6
     e8a:	5f 90       	pop	r5
     e8c:	4f 90       	pop	r4
     e8e:	08 95       	ret

00000e90 <MahonyAHRSupdate>:
     e90:	2f 92       	push	r2
     e92:	3f 92       	push	r3
     e94:	4f 92       	push	r4
     e96:	5f 92       	push	r5
     e98:	6f 92       	push	r6
     e9a:	7f 92       	push	r7
     e9c:	8f 92       	push	r8
     e9e:	9f 92       	push	r9
     ea0:	af 92       	push	r10
     ea2:	bf 92       	push	r11
     ea4:	cf 92       	push	r12
     ea6:	df 92       	push	r13
     ea8:	ef 92       	push	r14
     eaa:	ff 92       	push	r15
     eac:	0f 93       	push	r16
     eae:	1f 93       	push	r17
     eb0:	cf 93       	push	r28
     eb2:	df 93       	push	r29
     eb4:	cd b7       	in	r28, 0x3d	; 61
     eb6:	de b7       	in	r29, 0x3e	; 62
     eb8:	c8 55       	subi	r28, 0x58	; 88
     eba:	d1 09       	sbc	r29, r1
     ebc:	0f b6       	in	r0, 0x3f	; 63
     ebe:	f8 94       	cli
     ec0:	de bf       	out	0x3e, r29	; 62
     ec2:	0f be       	out	0x3f, r0	; 63
     ec4:	cd bf       	out	0x3d, r28	; 61
     ec6:	69 8b       	std	Y+17, r22	; 0x11
     ec8:	7a 8b       	std	Y+18, r23	; 0x12
     eca:	8b 8b       	std	Y+19, r24	; 0x13
     ecc:	9c 8b       	std	Y+20, r25	; 0x14
     ece:	29 8f       	std	Y+25, r18	; 0x19
     ed0:	3a 8f       	std	Y+26, r19	; 0x1a
     ed2:	4b 8f       	std	Y+27, r20	; 0x1b
     ed4:	5c 8f       	std	Y+28, r21	; 0x1c
     ed6:	e9 82       	std	Y+1, r14	; 0x01
     ed8:	fa 82       	std	Y+2, r15	; 0x02
     eda:	0b 83       	std	Y+3, r16	; 0x03
     edc:	1c 83       	std	Y+4, r17	; 0x04
     ede:	ae 96       	adiw	r28, 0x2e	; 46
     ee0:	ff ac       	ldd	r15, Y+63	; 0x3f
     ee2:	ae 97       	sbiw	r28, 0x2e	; 46
     ee4:	af 96       	adiw	r28, 0x2f	; 47
     ee6:	ef ac       	ldd	r14, Y+63	; 0x3f
     ee8:	af 97       	sbiw	r28, 0x2f	; 47
     eea:	e0 96       	adiw	r28, 0x30	; 48
     eec:	9f ac       	ldd	r9, Y+63	; 0x3f
     eee:	e0 97       	sbiw	r28, 0x30	; 48
     ef0:	e1 96       	adiw	r28, 0x31	; 49
     ef2:	8f ac       	ldd	r8, Y+63	; 0x3f
     ef4:	e1 97       	sbiw	r28, 0x31	; 49
     ef6:	e2 96       	adiw	r28, 0x32	; 50
     ef8:	1f ad       	ldd	r17, Y+63	; 0x3f
     efa:	e2 97       	sbiw	r28, 0x32	; 50
     efc:	e3 96       	adiw	r28, 0x33	; 51
     efe:	0f ad       	ldd	r16, Y+63	; 0x3f
     f00:	e3 97       	sbiw	r28, 0x33	; 51
     f02:	e4 96       	adiw	r28, 0x34	; 52
     f04:	3f ac       	ldd	r3, Y+63	; 0x3f
     f06:	e4 97       	sbiw	r28, 0x34	; 52
     f08:	e5 96       	adiw	r28, 0x35	; 53
     f0a:	2f ac       	ldd	r2, Y+63	; 0x3f
     f0c:	e5 97       	sbiw	r28, 0x35	; 53
     f0e:	20 e0       	ldi	r18, 0x00	; 0
     f10:	30 e0       	ldi	r19, 0x00	; 0
     f12:	a9 01       	movw	r20, r18
     f14:	e9 96       	adiw	r28, 0x39	; 57
     f16:	6c ad       	ldd	r22, Y+60	; 0x3c
     f18:	7d ad       	ldd	r23, Y+61	; 0x3d
     f1a:	8e ad       	ldd	r24, Y+62	; 0x3e
     f1c:	9f ad       	ldd	r25, Y+63	; 0x3f
     f1e:	e9 97       	sbiw	r28, 0x39	; 57
     f20:	0e 94 ca 14 	call	0x2994	; 0x2994 <__cmpsf2>
     f24:	81 11       	cpse	r24, r1
     f26:	38 c0       	rjmp	.+112    	; 0xf98 <MahonyAHRSupdate+0x108>
     f28:	20 e0       	ldi	r18, 0x00	; 0
     f2a:	30 e0       	ldi	r19, 0x00	; 0
     f2c:	a9 01       	movw	r20, r18
     f2e:	ed 96       	adiw	r28, 0x3d	; 61
     f30:	6c ad       	ldd	r22, Y+60	; 0x3c
     f32:	7d ad       	ldd	r23, Y+61	; 0x3d
     f34:	8e ad       	ldd	r24, Y+62	; 0x3e
     f36:	9f ad       	ldd	r25, Y+63	; 0x3f
     f38:	ed 97       	sbiw	r28, 0x3d	; 61
     f3a:	0e 94 ca 14 	call	0x2994	; 0x2994 <__cmpsf2>
     f3e:	81 11       	cpse	r24, r1
     f40:	2b c0       	rjmp	.+86     	; 0xf98 <MahonyAHRSupdate+0x108>
     f42:	20 e0       	ldi	r18, 0x00	; 0
     f44:	30 e0       	ldi	r19, 0x00	; 0
     f46:	a9 01       	movw	r20, r18
     f48:	c3 58       	subi	r28, 0x83	; 131
     f4a:	df 4f       	sbci	r29, 0xFF	; 255
     f4c:	68 81       	ld	r22, Y
     f4e:	79 81       	ldd	r23, Y+1	; 0x01
     f50:	8a 81       	ldd	r24, Y+2	; 0x02
     f52:	9b 81       	ldd	r25, Y+3	; 0x03
     f54:	cd 57       	subi	r28, 0x7D	; 125
     f56:	d0 40       	sbci	r29, 0x00	; 0
     f58:	0e 94 ca 14 	call	0x2994	; 0x2994 <__cmpsf2>
     f5c:	81 11       	cpse	r24, r1
     f5e:	1c c0       	rjmp	.+56     	; 0xf98 <MahonyAHRSupdate+0x108>
     f60:	2f 92       	push	r2
     f62:	3f 92       	push	r3
     f64:	0f 93       	push	r16
     f66:	1f 93       	push	r17
     f68:	8f 92       	push	r8
     f6a:	9f 92       	push	r9
     f6c:	ef 92       	push	r14
     f6e:	ff 92       	push	r15
     f70:	e9 80       	ldd	r14, Y+1	; 0x01
     f72:	fa 80       	ldd	r15, Y+2	; 0x02
     f74:	0b 81       	ldd	r16, Y+3	; 0x03
     f76:	1c 81       	ldd	r17, Y+4	; 0x04
     f78:	29 8d       	ldd	r18, Y+25	; 0x19
     f7a:	3a 8d       	ldd	r19, Y+26	; 0x1a
     f7c:	4b 8d       	ldd	r20, Y+27	; 0x1b
     f7e:	5c 8d       	ldd	r21, Y+28	; 0x1c
     f80:	69 89       	ldd	r22, Y+17	; 0x11
     f82:	7a 89       	ldd	r23, Y+18	; 0x12
     f84:	8b 89       	ldd	r24, Y+19	; 0x13
     f86:	9c 89       	ldd	r25, Y+20	; 0x14
     f88:	0e 94 3f 02 	call	0x47e	; 0x47e <MahonyAHRSupdateIMU>
     f8c:	0f b6       	in	r0, 0x3f	; 63
     f8e:	f8 94       	cli
     f90:	de bf       	out	0x3e, r29	; 62
     f92:	0f be       	out	0x3f, r0	; 63
     f94:	cd bf       	out	0x3d, r28	; 61
     f96:	a6 c7       	rjmp	.+3916   	; 0x1ee4 <MahonyAHRSupdate+0x1054>
     f98:	20 e0       	ldi	r18, 0x00	; 0
     f9a:	30 e0       	ldi	r19, 0x00	; 0
     f9c:	a9 01       	movw	r20, r18
     f9e:	c6 01       	movw	r24, r12
     fa0:	b5 01       	movw	r22, r10
     fa2:	0e 94 ca 14 	call	0x2994	; 0x2994 <__cmpsf2>
     fa6:	81 11       	cpse	r24, r1
     fa8:	17 c0       	rjmp	.+46     	; 0xfd8 <MahonyAHRSupdate+0x148>
     faa:	20 e0       	ldi	r18, 0x00	; 0
     fac:	30 e0       	ldi	r19, 0x00	; 0
     fae:	a9 01       	movw	r20, r18
     fb0:	6f 2d       	mov	r22, r15
     fb2:	7e 2d       	mov	r23, r14
     fb4:	89 2d       	mov	r24, r9
     fb6:	98 2d       	mov	r25, r8
     fb8:	0e 94 ca 14 	call	0x2994	; 0x2994 <__cmpsf2>
     fbc:	81 11       	cpse	r24, r1
     fbe:	0c c0       	rjmp	.+24     	; 0xfd8 <MahonyAHRSupdate+0x148>
     fc0:	20 e0       	ldi	r18, 0x00	; 0
     fc2:	30 e0       	ldi	r19, 0x00	; 0
     fc4:	a9 01       	movw	r20, r18
     fc6:	61 2f       	mov	r22, r17
     fc8:	70 2f       	mov	r23, r16
     fca:	83 2d       	mov	r24, r3
     fcc:	92 2d       	mov	r25, r2
     fce:	0e 94 ca 14 	call	0x2994	; 0x2994 <__cmpsf2>
     fd2:	88 23       	and	r24, r24
     fd4:	09 f4       	brne	.+2      	; 0xfd8 <MahonyAHRSupdate+0x148>
     fd6:	39 c5       	rjmp	.+2674   	; 0x1a4a <MahonyAHRSupdate+0xbba>
     fd8:	a6 01       	movw	r20, r12
     fda:	95 01       	movw	r18, r10
     fdc:	c6 01       	movw	r24, r12
     fde:	b5 01       	movw	r22, r10
     fe0:	0e 94 5b 16 	call	0x2cb6	; 0x2cb6 <__mulsf3>
     fe4:	2b 01       	movw	r4, r22
     fe6:	3c 01       	movw	r6, r24
     fe8:	2f 2d       	mov	r18, r15
     fea:	3e 2d       	mov	r19, r14
     fec:	49 2d       	mov	r20, r9
     fee:	58 2d       	mov	r21, r8
     ff0:	6f 2d       	mov	r22, r15
     ff2:	7e 2d       	mov	r23, r14
     ff4:	89 2d       	mov	r24, r9
     ff6:	98 2d       	mov	r25, r8
     ff8:	0e 94 5b 16 	call	0x2cb6	; 0x2cb6 <__mulsf3>
     ffc:	9b 01       	movw	r18, r22
     ffe:	ac 01       	movw	r20, r24
    1000:	c3 01       	movw	r24, r6
    1002:	b2 01       	movw	r22, r4
    1004:	0e 94 d1 13 	call	0x27a2	; 0x27a2 <__addsf3>
    1008:	2b 01       	movw	r4, r22
    100a:	3c 01       	movw	r6, r24
    100c:	21 2f       	mov	r18, r17
    100e:	30 2f       	mov	r19, r16
    1010:	43 2d       	mov	r20, r3
    1012:	52 2d       	mov	r21, r2
    1014:	61 2f       	mov	r22, r17
    1016:	70 2f       	mov	r23, r16
    1018:	83 2d       	mov	r24, r3
    101a:	92 2d       	mov	r25, r2
    101c:	0e 94 5b 16 	call	0x2cb6	; 0x2cb6 <__mulsf3>
    1020:	9b 01       	movw	r18, r22
    1022:	ac 01       	movw	r20, r24
    1024:	c3 01       	movw	r24, r6
    1026:	b2 01       	movw	r22, r4
    1028:	0e 94 d1 13 	call	0x27a2	; 0x27a2 <__addsf3>
    102c:	0e 94 34 02 	call	0x468	; 0x468 <invSqrt>
    1030:	2b 01       	movw	r4, r22
    1032:	3c 01       	movw	r6, r24
    1034:	9b 01       	movw	r18, r22
    1036:	ac 01       	movw	r20, r24
    1038:	c6 01       	movw	r24, r12
    103a:	b5 01       	movw	r22, r10
    103c:	0e 94 5b 16 	call	0x2cb6	; 0x2cb6 <__mulsf3>
    1040:	6d ab       	std	Y+53, r22	; 0x35
    1042:	7e ab       	std	Y+54, r23	; 0x36
    1044:	8f ab       	std	Y+55, r24	; 0x37
    1046:	98 af       	std	Y+56, r25	; 0x38
    1048:	a3 01       	movw	r20, r6
    104a:	92 01       	movw	r18, r4
    104c:	6f 2d       	mov	r22, r15
    104e:	7e 2d       	mov	r23, r14
    1050:	89 2d       	mov	r24, r9
    1052:	98 2d       	mov	r25, r8
    1054:	0e 94 5b 16 	call	0x2cb6	; 0x2cb6 <__mulsf3>
    1058:	69 af       	std	Y+57, r22	; 0x39
    105a:	7a af       	std	Y+58, r23	; 0x3a
    105c:	8b af       	std	Y+59, r24	; 0x3b
    105e:	9c af       	std	Y+60, r25	; 0x3c
    1060:	a3 01       	movw	r20, r6
    1062:	92 01       	movw	r18, r4
    1064:	61 2f       	mov	r22, r17
    1066:	70 2f       	mov	r23, r16
    1068:	83 2d       	mov	r24, r3
    106a:	92 2d       	mov	r25, r2
    106c:	0e 94 5b 16 	call	0x2cb6	; 0x2cb6 <__mulsf3>
    1070:	21 96       	adiw	r28, 0x01	; 1
    1072:	6c af       	std	Y+60, r22	; 0x3c
    1074:	7d af       	std	Y+61, r23	; 0x3d
    1076:	8e af       	std	Y+62, r24	; 0x3e
    1078:	9f af       	std	Y+63, r25	; 0x3f
    107a:	21 97       	sbiw	r28, 0x01	; 1
    107c:	e9 96       	adiw	r28, 0x39	; 57
    107e:	2c ad       	ldd	r18, Y+60	; 0x3c
    1080:	3d ad       	ldd	r19, Y+61	; 0x3d
    1082:	4e ad       	ldd	r20, Y+62	; 0x3e
    1084:	5f ad       	ldd	r21, Y+63	; 0x3f
    1086:	e9 97       	sbiw	r28, 0x39	; 57
    1088:	ca 01       	movw	r24, r20
    108a:	b9 01       	movw	r22, r18
    108c:	0e 94 5b 16 	call	0x2cb6	; 0x2cb6 <__mulsf3>
    1090:	6b 01       	movw	r12, r22
    1092:	7c 01       	movw	r14, r24
    1094:	ed 96       	adiw	r28, 0x3d	; 61
    1096:	2c ad       	ldd	r18, Y+60	; 0x3c
    1098:	3d ad       	ldd	r19, Y+61	; 0x3d
    109a:	4e ad       	ldd	r20, Y+62	; 0x3e
    109c:	5f ad       	ldd	r21, Y+63	; 0x3f
    109e:	ed 97       	sbiw	r28, 0x3d	; 61
    10a0:	ca 01       	movw	r24, r20
    10a2:	b9 01       	movw	r22, r18
    10a4:	0e 94 5b 16 	call	0x2cb6	; 0x2cb6 <__mulsf3>
    10a8:	9b 01       	movw	r18, r22
    10aa:	ac 01       	movw	r20, r24
    10ac:	c7 01       	movw	r24, r14
    10ae:	b6 01       	movw	r22, r12
    10b0:	0e 94 d1 13 	call	0x27a2	; 0x27a2 <__addsf3>
    10b4:	6b 01       	movw	r12, r22
    10b6:	7c 01       	movw	r14, r24
    10b8:	c3 58       	subi	r28, 0x83	; 131
    10ba:	df 4f       	sbci	r29, 0xFF	; 255
    10bc:	28 81       	ld	r18, Y
    10be:	39 81       	ldd	r19, Y+1	; 0x01
    10c0:	4a 81       	ldd	r20, Y+2	; 0x02
    10c2:	5b 81       	ldd	r21, Y+3	; 0x03
    10c4:	cd 57       	subi	r28, 0x7D	; 125
    10c6:	d0 40       	sbci	r29, 0x00	; 0
    10c8:	ca 01       	movw	r24, r20
    10ca:	b9 01       	movw	r22, r18
    10cc:	0e 94 5b 16 	call	0x2cb6	; 0x2cb6 <__mulsf3>
    10d0:	9b 01       	movw	r18, r22
    10d2:	ac 01       	movw	r20, r24
    10d4:	c7 01       	movw	r24, r14
    10d6:	b6 01       	movw	r22, r12
    10d8:	0e 94 d1 13 	call	0x27a2	; 0x27a2 <__addsf3>
    10dc:	0e 94 34 02 	call	0x468	; 0x468 <invSqrt>
    10e0:	6b 01       	movw	r12, r22
    10e2:	7c 01       	movw	r14, r24
    10e4:	9b 01       	movw	r18, r22
    10e6:	ac 01       	movw	r20, r24
    10e8:	e9 96       	adiw	r28, 0x39	; 57
    10ea:	6c ad       	ldd	r22, Y+60	; 0x3c
    10ec:	7d ad       	ldd	r23, Y+61	; 0x3d
    10ee:	8e ad       	ldd	r24, Y+62	; 0x3e
    10f0:	9f ad       	ldd	r25, Y+63	; 0x3f
    10f2:	e9 97       	sbiw	r28, 0x39	; 57
    10f4:	0e 94 5b 16 	call	0x2cb6	; 0x2cb6 <__mulsf3>
    10f8:	6d 83       	std	Y+5, r22	; 0x05
    10fa:	7e 83       	std	Y+6, r23	; 0x06
    10fc:	8f 83       	std	Y+7, r24	; 0x07
    10fe:	98 87       	std	Y+8, r25	; 0x08
    1100:	a7 01       	movw	r20, r14
    1102:	96 01       	movw	r18, r12
    1104:	ed 96       	adiw	r28, 0x3d	; 61
    1106:	6c ad       	ldd	r22, Y+60	; 0x3c
    1108:	7d ad       	ldd	r23, Y+61	; 0x3d
    110a:	8e ad       	ldd	r24, Y+62	; 0x3e
    110c:	9f ad       	ldd	r25, Y+63	; 0x3f
    110e:	ed 97       	sbiw	r28, 0x3d	; 61
    1110:	0e 94 5b 16 	call	0x2cb6	; 0x2cb6 <__mulsf3>
    1114:	69 87       	std	Y+9, r22	; 0x09
    1116:	7a 87       	std	Y+10, r23	; 0x0a
    1118:	8b 87       	std	Y+11, r24	; 0x0b
    111a:	9c 87       	std	Y+12, r25	; 0x0c
    111c:	a7 01       	movw	r20, r14
    111e:	96 01       	movw	r18, r12
    1120:	c3 58       	subi	r28, 0x83	; 131
    1122:	df 4f       	sbci	r29, 0xFF	; 255
    1124:	68 81       	ld	r22, Y
    1126:	79 81       	ldd	r23, Y+1	; 0x01
    1128:	8a 81       	ldd	r24, Y+2	; 0x02
    112a:	9b 81       	ldd	r25, Y+3	; 0x03
    112c:	cd 57       	subi	r28, 0x7D	; 125
    112e:	d0 40       	sbci	r29, 0x00	; 0
    1130:	0e 94 5b 16 	call	0x2cb6	; 0x2cb6 <__mulsf3>
    1134:	6d 87       	std	Y+13, r22	; 0x0d
    1136:	7e 87       	std	Y+14, r23	; 0x0e
    1138:	8f 87       	std	Y+15, r24	; 0x0f
    113a:	98 8b       	std	Y+16, r25	; 0x10
    113c:	40 90 60 00 	lds	r4, 0x0060	; 0x800060 <__data_start>
    1140:	50 90 61 00 	lds	r5, 0x0061	; 0x800061 <__data_start+0x1>
    1144:	60 90 62 00 	lds	r6, 0x0062	; 0x800062 <__data_start+0x2>
    1148:	70 90 63 00 	lds	r7, 0x0063	; 0x800063 <__data_start+0x3>
    114c:	e0 90 60 00 	lds	r14, 0x0060	; 0x800060 <__data_start>
    1150:	f0 90 61 00 	lds	r15, 0x0061	; 0x800061 <__data_start+0x1>
    1154:	00 91 62 00 	lds	r16, 0x0062	; 0x800062 <__data_start+0x2>
    1158:	10 91 63 00 	lds	r17, 0x0063	; 0x800063 <__data_start+0x3>
    115c:	69 96       	adiw	r28, 0x19	; 25
    115e:	ec ae       	std	Y+60, r14	; 0x3c
    1160:	fd ae       	std	Y+61, r15	; 0x3d
    1162:	0e af       	std	Y+62, r16	; 0x3e
    1164:	1f af       	std	Y+63, r17	; 0x3f
    1166:	69 97       	sbiw	r28, 0x19	; 25
    1168:	60 91 60 00 	lds	r22, 0x0060	; 0x800060 <__data_start>
    116c:	70 91 61 00 	lds	r23, 0x0061	; 0x800061 <__data_start+0x1>
    1170:	80 91 62 00 	lds	r24, 0x0062	; 0x800062 <__data_start+0x2>
    1174:	90 91 63 00 	lds	r25, 0x0063	; 0x800063 <__data_start+0x3>
    1178:	20 91 88 00 	lds	r18, 0x0088	; 0x800088 <q1>
    117c:	30 91 89 00 	lds	r19, 0x0089	; 0x800089 <q1+0x1>
    1180:	40 91 8a 00 	lds	r20, 0x008A	; 0x80008a <q1+0x2>
    1184:	50 91 8b 00 	lds	r21, 0x008B	; 0x80008b <q1+0x3>
    1188:	0e 94 5b 16 	call	0x2cb6	; 0x2cb6 <__mulsf3>
    118c:	69 a3       	std	Y+33, r22	; 0x21
    118e:	7a a3       	std	Y+34, r23	; 0x22
    1190:	8b a3       	std	Y+35, r24	; 0x23
    1192:	9c a3       	std	Y+36, r25	; 0x24
    1194:	60 91 60 00 	lds	r22, 0x0060	; 0x800060 <__data_start>
    1198:	70 91 61 00 	lds	r23, 0x0061	; 0x800061 <__data_start+0x1>
    119c:	80 91 62 00 	lds	r24, 0x0062	; 0x800062 <__data_start+0x2>
    11a0:	90 91 63 00 	lds	r25, 0x0063	; 0x800063 <__data_start+0x3>
    11a4:	20 91 84 00 	lds	r18, 0x0084	; 0x800084 <q2>
    11a8:	30 91 85 00 	lds	r19, 0x0085	; 0x800085 <q2+0x1>
    11ac:	40 91 86 00 	lds	r20, 0x0086	; 0x800086 <q2+0x2>
    11b0:	50 91 87 00 	lds	r21, 0x0087	; 0x800087 <q2+0x3>
    11b4:	0e 94 5b 16 	call	0x2cb6	; 0x2cb6 <__mulsf3>
    11b8:	6d 8f       	std	Y+29, r22	; 0x1d
    11ba:	7e 8f       	std	Y+30, r23	; 0x1e
    11bc:	8f 8f       	std	Y+31, r24	; 0x1f
    11be:	98 a3       	std	Y+32, r25	; 0x20
    11c0:	60 91 60 00 	lds	r22, 0x0060	; 0x800060 <__data_start>
    11c4:	70 91 61 00 	lds	r23, 0x0061	; 0x800061 <__data_start+0x1>
    11c8:	80 91 62 00 	lds	r24, 0x0062	; 0x800062 <__data_start+0x2>
    11cc:	90 91 63 00 	lds	r25, 0x0063	; 0x800063 <__data_start+0x3>
    11d0:	20 91 80 00 	lds	r18, 0x0080	; 0x800080 <q3>
    11d4:	30 91 81 00 	lds	r19, 0x0081	; 0x800081 <q3+0x1>
    11d8:	40 91 82 00 	lds	r20, 0x0082	; 0x800082 <q3+0x2>
    11dc:	50 91 83 00 	lds	r21, 0x0083	; 0x800083 <q3+0x3>
    11e0:	0e 94 5b 16 	call	0x2cb6	; 0x2cb6 <__mulsf3>
    11e4:	6d 8b       	std	Y+21, r22	; 0x15
    11e6:	7e 8b       	std	Y+22, r23	; 0x16
    11e8:	8f 8b       	std	Y+23, r24	; 0x17
    11ea:	98 8f       	std	Y+24, r25	; 0x18
    11ec:	c0 90 88 00 	lds	r12, 0x0088	; 0x800088 <q1>
    11f0:	d0 90 89 00 	lds	r13, 0x0089	; 0x800089 <q1+0x1>
    11f4:	e0 90 8a 00 	lds	r14, 0x008A	; 0x80008a <q1+0x2>
    11f8:	f0 90 8b 00 	lds	r15, 0x008B	; 0x80008b <q1+0x3>
    11fc:	80 91 88 00 	lds	r24, 0x0088	; 0x800088 <q1>
    1200:	90 91 89 00 	lds	r25, 0x0089	; 0x800089 <q1+0x1>
    1204:	a0 91 8a 00 	lds	r26, 0x008A	; 0x80008a <q1+0x2>
    1208:	b0 91 8b 00 	lds	r27, 0x008B	; 0x80008b <q1+0x3>
    120c:	89 ab       	std	Y+49, r24	; 0x31
    120e:	9a ab       	std	Y+50, r25	; 0x32
    1210:	ab ab       	std	Y+51, r26	; 0x33
    1212:	bc ab       	std	Y+52, r27	; 0x34
    1214:	60 91 88 00 	lds	r22, 0x0088	; 0x800088 <q1>
    1218:	70 91 89 00 	lds	r23, 0x0089	; 0x800089 <q1+0x1>
    121c:	80 91 8a 00 	lds	r24, 0x008A	; 0x80008a <q1+0x2>
    1220:	90 91 8b 00 	lds	r25, 0x008B	; 0x80008b <q1+0x3>
    1224:	20 91 84 00 	lds	r18, 0x0084	; 0x800084 <q2>
    1228:	30 91 85 00 	lds	r19, 0x0085	; 0x800085 <q2+0x1>
    122c:	40 91 86 00 	lds	r20, 0x0086	; 0x800086 <q2+0x2>
    1230:	50 91 87 00 	lds	r21, 0x0087	; 0x800087 <q2+0x3>
    1234:	0e 94 5b 16 	call	0x2cb6	; 0x2cb6 <__mulsf3>
    1238:	69 a7       	std	Y+41, r22	; 0x29
    123a:	7a a7       	std	Y+42, r23	; 0x2a
    123c:	8b a7       	std	Y+43, r24	; 0x2b
    123e:	9c a7       	std	Y+44, r25	; 0x2c
    1240:	60 91 88 00 	lds	r22, 0x0088	; 0x800088 <q1>
    1244:	70 91 89 00 	lds	r23, 0x0089	; 0x800089 <q1+0x1>
    1248:	80 91 8a 00 	lds	r24, 0x008A	; 0x80008a <q1+0x2>
    124c:	90 91 8b 00 	lds	r25, 0x008B	; 0x80008b <q1+0x3>
    1250:	20 91 80 00 	lds	r18, 0x0080	; 0x800080 <q3>
    1254:	30 91 81 00 	lds	r19, 0x0081	; 0x800081 <q3+0x1>
    1258:	40 91 82 00 	lds	r20, 0x0082	; 0x800082 <q3+0x2>
    125c:	50 91 83 00 	lds	r21, 0x0083	; 0x800083 <q3+0x3>
    1260:	0e 94 5b 16 	call	0x2cb6	; 0x2cb6 <__mulsf3>
    1264:	6d a7       	std	Y+45, r22	; 0x2d
    1266:	7e a7       	std	Y+46, r23	; 0x2e
    1268:	8f a7       	std	Y+47, r24	; 0x2f
    126a:	98 ab       	std	Y+48, r25	; 0x30
    126c:	60 91 84 00 	lds	r22, 0x0084	; 0x800084 <q2>
    1270:	70 91 85 00 	lds	r23, 0x0085	; 0x800085 <q2+0x1>
    1274:	80 91 86 00 	lds	r24, 0x0086	; 0x800086 <q2+0x2>
    1278:	90 91 87 00 	lds	r25, 0x0087	; 0x800087 <q2+0x3>
    127c:	20 91 84 00 	lds	r18, 0x0084	; 0x800084 <q2>
    1280:	30 91 85 00 	lds	r19, 0x0085	; 0x800085 <q2+0x1>
    1284:	40 91 86 00 	lds	r20, 0x0086	; 0x800086 <q2+0x2>
    1288:	50 91 87 00 	lds	r21, 0x0087	; 0x800087 <q2+0x3>
    128c:	0e 94 5b 16 	call	0x2cb6	; 0x2cb6 <__mulsf3>
    1290:	25 96       	adiw	r28, 0x05	; 5
    1292:	6c af       	std	Y+60, r22	; 0x3c
    1294:	7d af       	std	Y+61, r23	; 0x3d
    1296:	8e af       	std	Y+62, r24	; 0x3e
    1298:	9f af       	std	Y+63, r25	; 0x3f
    129a:	25 97       	sbiw	r28, 0x05	; 5
    129c:	60 91 84 00 	lds	r22, 0x0084	; 0x800084 <q2>
    12a0:	70 91 85 00 	lds	r23, 0x0085	; 0x800085 <q2+0x1>
    12a4:	80 91 86 00 	lds	r24, 0x0086	; 0x800086 <q2+0x2>
    12a8:	90 91 87 00 	lds	r25, 0x0087	; 0x800087 <q2+0x3>
    12ac:	20 91 80 00 	lds	r18, 0x0080	; 0x800080 <q3>
    12b0:	30 91 81 00 	lds	r19, 0x0081	; 0x800081 <q3+0x1>
    12b4:	40 91 82 00 	lds	r20, 0x0082	; 0x800082 <q3+0x2>
    12b8:	50 91 83 00 	lds	r21, 0x0083	; 0x800083 <q3+0x3>
    12bc:	0e 94 5b 16 	call	0x2cb6	; 0x2cb6 <__mulsf3>
    12c0:	29 96       	adiw	r28, 0x09	; 9
    12c2:	6c af       	std	Y+60, r22	; 0x3c
    12c4:	7d af       	std	Y+61, r23	; 0x3d
    12c6:	8e af       	std	Y+62, r24	; 0x3e
    12c8:	9f af       	std	Y+63, r25	; 0x3f
    12ca:	29 97       	sbiw	r28, 0x09	; 9
    12cc:	60 91 80 00 	lds	r22, 0x0080	; 0x800080 <q3>
    12d0:	70 91 81 00 	lds	r23, 0x0081	; 0x800081 <q3+0x1>
    12d4:	80 91 82 00 	lds	r24, 0x0082	; 0x800082 <q3+0x2>
    12d8:	90 91 83 00 	lds	r25, 0x0083	; 0x800083 <q3+0x3>
    12dc:	20 91 80 00 	lds	r18, 0x0080	; 0x800080 <q3>
    12e0:	30 91 81 00 	lds	r19, 0x0081	; 0x800081 <q3+0x1>
    12e4:	40 91 82 00 	lds	r20, 0x0082	; 0x800082 <q3+0x2>
    12e8:	50 91 83 00 	lds	r21, 0x0083	; 0x800083 <q3+0x3>
    12ec:	0e 94 5b 16 	call	0x2cb6	; 0x2cb6 <__mulsf3>
    12f0:	6d a3       	std	Y+37, r22	; 0x25
    12f2:	7e a3       	std	Y+38, r23	; 0x26
    12f4:	8f a3       	std	Y+39, r24	; 0x27
    12f6:	98 a7       	std	Y+40, r25	; 0x28
    12f8:	25 96       	adiw	r28, 0x05	; 5
    12fa:	2c ad       	ldd	r18, Y+60	; 0x3c
    12fc:	3d ad       	ldd	r19, Y+61	; 0x3d
    12fe:	4e ad       	ldd	r20, Y+62	; 0x3e
    1300:	5f ad       	ldd	r21, Y+63	; 0x3f
    1302:	25 97       	sbiw	r28, 0x05	; 5
    1304:	60 e0       	ldi	r22, 0x00	; 0
    1306:	70 e0       	ldi	r23, 0x00	; 0
    1308:	80 e0       	ldi	r24, 0x00	; 0
    130a:	9f e3       	ldi	r25, 0x3F	; 63
    130c:	0e 94 d0 13 	call	0x27a0	; 0x27a0 <__subsf3>
    1310:	2d a1       	ldd	r18, Y+37	; 0x25
    1312:	3e a1       	ldd	r19, Y+38	; 0x26
    1314:	4f a1       	ldd	r20, Y+39	; 0x27
    1316:	58 a5       	ldd	r21, Y+40	; 0x28
    1318:	0e 94 d0 13 	call	0x27a0	; 0x27a0 <__subsf3>
    131c:	2d 96       	adiw	r28, 0x0d	; 13
    131e:	6c af       	std	Y+60, r22	; 0x3c
    1320:	7d af       	std	Y+61, r23	; 0x3d
    1322:	8e af       	std	Y+62, r24	; 0x3e
    1324:	9f af       	std	Y+63, r25	; 0x3f
    1326:	2d 97       	sbiw	r28, 0x0d	; 13
    1328:	2d 89       	ldd	r18, Y+21	; 0x15
    132a:	3e 89       	ldd	r19, Y+22	; 0x16
    132c:	4f 89       	ldd	r20, Y+23	; 0x17
    132e:	58 8d       	ldd	r21, Y+24	; 0x18
    1330:	69 a5       	ldd	r22, Y+41	; 0x29
    1332:	7a a5       	ldd	r23, Y+42	; 0x2a
    1334:	8b a5       	ldd	r24, Y+43	; 0x2b
    1336:	9c a5       	ldd	r25, Y+44	; 0x2c
    1338:	0e 94 d0 13 	call	0x27a0	; 0x27a0 <__subsf3>
    133c:	61 96       	adiw	r28, 0x11	; 17
    133e:	6c af       	std	Y+60, r22	; 0x3c
    1340:	7d af       	std	Y+61, r23	; 0x3d
    1342:	8e af       	std	Y+62, r24	; 0x3e
    1344:	9f af       	std	Y+63, r25	; 0x3f
    1346:	61 97       	sbiw	r28, 0x11	; 17
    1348:	2d a5       	ldd	r18, Y+45	; 0x2d
    134a:	3e a5       	ldd	r19, Y+46	; 0x2e
    134c:	4f a5       	ldd	r20, Y+47	; 0x2f
    134e:	58 a9       	ldd	r21, Y+48	; 0x30
    1350:	6d 8d       	ldd	r22, Y+29	; 0x1d
    1352:	7e 8d       	ldd	r23, Y+30	; 0x1e
    1354:	8f 8d       	ldd	r24, Y+31	; 0x1f
    1356:	98 a1       	ldd	r25, Y+32	; 0x20
    1358:	0e 94 d1 13 	call	0x27a2	; 0x27a2 <__addsf3>
    135c:	65 96       	adiw	r28, 0x15	; 21
    135e:	6c af       	std	Y+60, r22	; 0x3c
    1360:	7d af       	std	Y+61, r23	; 0x3d
    1362:	8e af       	std	Y+62, r24	; 0x3e
    1364:	9f af       	std	Y+63, r25	; 0x3f
    1366:	65 97       	sbiw	r28, 0x15	; 21
    1368:	2d 96       	adiw	r28, 0x0d	; 13
    136a:	2c ad       	ldd	r18, Y+60	; 0x3c
    136c:	3d ad       	ldd	r19, Y+61	; 0x3d
    136e:	4e ad       	ldd	r20, Y+62	; 0x3e
    1370:	5f ad       	ldd	r21, Y+63	; 0x3f
    1372:	2d 97       	sbiw	r28, 0x0d	; 13
    1374:	6d 81       	ldd	r22, Y+5	; 0x05
    1376:	7e 81       	ldd	r23, Y+6	; 0x06
    1378:	8f 81       	ldd	r24, Y+7	; 0x07
    137a:	98 85       	ldd	r25, Y+8	; 0x08
    137c:	0e 94 5b 16 	call	0x2cb6	; 0x2cb6 <__mulsf3>
    1380:	4b 01       	movw	r8, r22
    1382:	5c 01       	movw	r10, r24
    1384:	61 96       	adiw	r28, 0x11	; 17
    1386:	2c ad       	ldd	r18, Y+60	; 0x3c
    1388:	3d ad       	ldd	r19, Y+61	; 0x3d
    138a:	4e ad       	ldd	r20, Y+62	; 0x3e
    138c:	5f ad       	ldd	r21, Y+63	; 0x3f
    138e:	61 97       	sbiw	r28, 0x11	; 17
    1390:	69 85       	ldd	r22, Y+9	; 0x09
    1392:	7a 85       	ldd	r23, Y+10	; 0x0a
    1394:	8b 85       	ldd	r24, Y+11	; 0x0b
    1396:	9c 85       	ldd	r25, Y+12	; 0x0c
    1398:	0e 94 5b 16 	call	0x2cb6	; 0x2cb6 <__mulsf3>
    139c:	9b 01       	movw	r18, r22
    139e:	ac 01       	movw	r20, r24
    13a0:	c5 01       	movw	r24, r10
    13a2:	b4 01       	movw	r22, r8
    13a4:	0e 94 d1 13 	call	0x27a2	; 0x27a2 <__addsf3>
    13a8:	4b 01       	movw	r8, r22
    13aa:	5c 01       	movw	r10, r24
    13ac:	65 96       	adiw	r28, 0x15	; 21
    13ae:	2c ad       	ldd	r18, Y+60	; 0x3c
    13b0:	3d ad       	ldd	r19, Y+61	; 0x3d
    13b2:	4e ad       	ldd	r20, Y+62	; 0x3e
    13b4:	5f ad       	ldd	r21, Y+63	; 0x3f
    13b6:	65 97       	sbiw	r28, 0x15	; 21
    13b8:	6d 85       	ldd	r22, Y+13	; 0x0d
    13ba:	7e 85       	ldd	r23, Y+14	; 0x0e
    13bc:	8f 85       	ldd	r24, Y+15	; 0x0f
    13be:	98 89       	ldd	r25, Y+16	; 0x10
    13c0:	0e 94 5b 16 	call	0x2cb6	; 0x2cb6 <__mulsf3>
    13c4:	9b 01       	movw	r18, r22
    13c6:	ac 01       	movw	r20, r24
    13c8:	c5 01       	movw	r24, r10
    13ca:	b4 01       	movw	r22, r8
    13cc:	0e 94 d1 13 	call	0x27a2	; 0x27a2 <__addsf3>
    13d0:	9b 01       	movw	r18, r22
    13d2:	ac 01       	movw	r20, r24
    13d4:	0e 94 d1 13 	call	0x27a2	; 0x27a2 <__addsf3>
    13d8:	4b 01       	movw	r8, r22
    13da:	5c 01       	movw	r10, r24
    13dc:	29 a9       	ldd	r18, Y+49	; 0x31
    13de:	3a a9       	ldd	r19, Y+50	; 0x32
    13e0:	4b a9       	ldd	r20, Y+51	; 0x33
    13e2:	5c a9       	ldd	r21, Y+52	; 0x34
    13e4:	c7 01       	movw	r24, r14
    13e6:	b6 01       	movw	r22, r12
    13e8:	0e 94 5b 16 	call	0x2cb6	; 0x2cb6 <__mulsf3>
    13ec:	9b 01       	movw	r18, r22
    13ee:	ac 01       	movw	r20, r24
    13f0:	60 e0       	ldi	r22, 0x00	; 0
    13f2:	70 e0       	ldi	r23, 0x00	; 0
    13f4:	80 e0       	ldi	r24, 0x00	; 0
    13f6:	9f e3       	ldi	r25, 0x3F	; 63
    13f8:	0e 94 d0 13 	call	0x27a0	; 0x27a0 <__subsf3>
    13fc:	69 ab       	std	Y+49, r22	; 0x31
    13fe:	7a ab       	std	Y+50, r23	; 0x32
    1400:	8b ab       	std	Y+51, r24	; 0x33
    1402:	9c ab       	std	Y+52, r25	; 0x34
    1404:	29 a5       	ldd	r18, Y+41	; 0x29
    1406:	3a a5       	ldd	r19, Y+42	; 0x2a
    1408:	4b a5       	ldd	r20, Y+43	; 0x2b
    140a:	5c a5       	ldd	r21, Y+44	; 0x2c
    140c:	6d 89       	ldd	r22, Y+21	; 0x15
    140e:	7e 89       	ldd	r23, Y+22	; 0x16
    1410:	8f 89       	ldd	r24, Y+23	; 0x17
    1412:	98 8d       	ldd	r25, Y+24	; 0x18
    1414:	0e 94 d1 13 	call	0x27a2	; 0x27a2 <__addsf3>
    1418:	2d 81       	ldd	r18, Y+5	; 0x05
    141a:	3e 81       	ldd	r19, Y+6	; 0x06
    141c:	4f 81       	ldd	r20, Y+7	; 0x07
    141e:	58 85       	ldd	r21, Y+8	; 0x08
    1420:	0e 94 5b 16 	call	0x2cb6	; 0x2cb6 <__mulsf3>
    1424:	6b 01       	movw	r12, r22
    1426:	7c 01       	movw	r14, r24
    1428:	2d a1       	ldd	r18, Y+37	; 0x25
    142a:	3e a1       	ldd	r19, Y+38	; 0x26
    142c:	4f a1       	ldd	r20, Y+39	; 0x27
    142e:	58 a5       	ldd	r21, Y+40	; 0x28
    1430:	69 a9       	ldd	r22, Y+49	; 0x31
    1432:	7a a9       	ldd	r23, Y+50	; 0x32
    1434:	8b a9       	ldd	r24, Y+51	; 0x33
    1436:	9c a9       	ldd	r25, Y+52	; 0x34
    1438:	0e 94 d0 13 	call	0x27a0	; 0x27a0 <__subsf3>
    143c:	29 85       	ldd	r18, Y+9	; 0x09
    143e:	3a 85       	ldd	r19, Y+10	; 0x0a
    1440:	4b 85       	ldd	r20, Y+11	; 0x0b
    1442:	5c 85       	ldd	r21, Y+12	; 0x0c
    1444:	0e 94 5b 16 	call	0x2cb6	; 0x2cb6 <__mulsf3>
    1448:	9b 01       	movw	r18, r22
    144a:	ac 01       	movw	r20, r24
    144c:	c7 01       	movw	r24, r14
    144e:	b6 01       	movw	r22, r12
    1450:	0e 94 d1 13 	call	0x27a2	; 0x27a2 <__addsf3>
    1454:	6b 01       	movw	r12, r22
    1456:	7c 01       	movw	r14, r24
    1458:	29 a1       	ldd	r18, Y+33	; 0x21
    145a:	3a a1       	ldd	r19, Y+34	; 0x22
    145c:	4b a1       	ldd	r20, Y+35	; 0x23
    145e:	5c a1       	ldd	r21, Y+36	; 0x24
    1460:	29 96       	adiw	r28, 0x09	; 9
    1462:	6c ad       	ldd	r22, Y+60	; 0x3c
    1464:	7d ad       	ldd	r23, Y+61	; 0x3d
    1466:	8e ad       	ldd	r24, Y+62	; 0x3e
    1468:	9f ad       	ldd	r25, Y+63	; 0x3f
    146a:	29 97       	sbiw	r28, 0x09	; 9
    146c:	0e 94 d0 13 	call	0x27a0	; 0x27a0 <__subsf3>
    1470:	2d 85       	ldd	r18, Y+13	; 0x0d
    1472:	3e 85       	ldd	r19, Y+14	; 0x0e
    1474:	4f 85       	ldd	r20, Y+15	; 0x0f
    1476:	58 89       	ldd	r21, Y+16	; 0x10
    1478:	0e 94 5b 16 	call	0x2cb6	; 0x2cb6 <__mulsf3>
    147c:	9b 01       	movw	r18, r22
    147e:	ac 01       	movw	r20, r24
    1480:	c7 01       	movw	r24, r14
    1482:	b6 01       	movw	r22, r12
    1484:	0e 94 d1 13 	call	0x27a2	; 0x27a2 <__addsf3>
    1488:	9b 01       	movw	r18, r22
    148a:	ac 01       	movw	r20, r24
    148c:	0e 94 d1 13 	call	0x27a2	; 0x27a2 <__addsf3>
    1490:	6b 01       	movw	r12, r22
    1492:	7c 01       	movw	r14, r24
    1494:	a5 01       	movw	r20, r10
    1496:	94 01       	movw	r18, r8
    1498:	c5 01       	movw	r24, r10
    149a:	b4 01       	movw	r22, r8
    149c:	0e 94 5b 16 	call	0x2cb6	; 0x2cb6 <__mulsf3>
    14a0:	6d 8b       	std	Y+21, r22	; 0x15
    14a2:	7e 8b       	std	Y+22, r23	; 0x16
    14a4:	8f 8b       	std	Y+23, r24	; 0x17
    14a6:	98 8f       	std	Y+24, r25	; 0x18
    14a8:	a5 01       	movw	r20, r10
    14aa:	94 01       	movw	r18, r8
    14ac:	c5 01       	movw	r24, r10
    14ae:	b4 01       	movw	r22, r8
    14b0:	0e 94 5b 16 	call	0x2cb6	; 0x2cb6 <__mulsf3>
    14b4:	4b 01       	movw	r8, r22
    14b6:	5c 01       	movw	r10, r24
    14b8:	a7 01       	movw	r20, r14
    14ba:	96 01       	movw	r18, r12
    14bc:	c7 01       	movw	r24, r14
    14be:	b6 01       	movw	r22, r12
    14c0:	0e 94 5b 16 	call	0x2cb6	; 0x2cb6 <__mulsf3>
    14c4:	9b 01       	movw	r18, r22
    14c6:	ac 01       	movw	r20, r24
    14c8:	c5 01       	movw	r24, r10
    14ca:	b4 01       	movw	r22, r8
    14cc:	0e 94 d1 13 	call	0x27a2	; 0x27a2 <__addsf3>
    14d0:	0e 94 ce 16 	call	0x2d9c	; 0x2d9c <sqrt>
    14d4:	4b 01       	movw	r8, r22
    14d6:	5c 01       	movw	r10, r24
    14d8:	2d 8d       	ldd	r18, Y+29	; 0x1d
    14da:	3e 8d       	ldd	r19, Y+30	; 0x1e
    14dc:	4f 8d       	ldd	r20, Y+31	; 0x1f
    14de:	58 a1       	ldd	r21, Y+32	; 0x20
    14e0:	6d a5       	ldd	r22, Y+45	; 0x2d
    14e2:	7e a5       	ldd	r23, Y+46	; 0x2e
    14e4:	8f a5       	ldd	r24, Y+47	; 0x2f
    14e6:	98 a9       	ldd	r25, Y+48	; 0x30
    14e8:	0e 94 d0 13 	call	0x27a0	; 0x27a0 <__subsf3>
    14ec:	6d 8f       	std	Y+29, r22	; 0x1d
    14ee:	7e 8f       	std	Y+30, r23	; 0x1e
    14f0:	8f 8f       	std	Y+31, r24	; 0x1f
    14f2:	98 a3       	std	Y+32, r25	; 0x20
    14f4:	29 96       	adiw	r28, 0x09	; 9
    14f6:	2c ad       	ldd	r18, Y+60	; 0x3c
    14f8:	3d ad       	ldd	r19, Y+61	; 0x3d
    14fa:	4e ad       	ldd	r20, Y+62	; 0x3e
    14fc:	5f ad       	ldd	r21, Y+63	; 0x3f
    14fe:	29 97       	sbiw	r28, 0x09	; 9
    1500:	69 a1       	ldd	r22, Y+33	; 0x21
    1502:	7a a1       	ldd	r23, Y+34	; 0x22
    1504:	8b a1       	ldd	r24, Y+35	; 0x23
    1506:	9c a1       	ldd	r25, Y+36	; 0x24
    1508:	0e 94 d1 13 	call	0x27a2	; 0x27a2 <__addsf3>
    150c:	69 a3       	std	Y+33, r22	; 0x21
    150e:	7a a3       	std	Y+34, r23	; 0x22
    1510:	8b a3       	std	Y+35, r24	; 0x23
    1512:	9c a3       	std	Y+36, r25	; 0x24
    1514:	25 96       	adiw	r28, 0x05	; 5
    1516:	2c ad       	ldd	r18, Y+60	; 0x3c
    1518:	3d ad       	ldd	r19, Y+61	; 0x3d
    151a:	4e ad       	ldd	r20, Y+62	; 0x3e
    151c:	5f ad       	ldd	r21, Y+63	; 0x3f
    151e:	25 97       	sbiw	r28, 0x05	; 5
    1520:	69 a9       	ldd	r22, Y+49	; 0x31
    1522:	7a a9       	ldd	r23, Y+50	; 0x32
    1524:	8b a9       	ldd	r24, Y+51	; 0x33
    1526:	9c a9       	ldd	r25, Y+52	; 0x34
    1528:	0e 94 d0 13 	call	0x27a0	; 0x27a0 <__subsf3>
    152c:	6d 8b       	std	Y+21, r22	; 0x15
    152e:	7e 8b       	std	Y+22, r23	; 0x16
    1530:	8f 8b       	std	Y+23, r24	; 0x17
    1532:	98 8f       	std	Y+24, r25	; 0x18
    1534:	2d 8d       	ldd	r18, Y+29	; 0x1d
    1536:	3e 8d       	ldd	r19, Y+30	; 0x1e
    1538:	4f 8d       	ldd	r20, Y+31	; 0x1f
    153a:	58 a1       	ldd	r21, Y+32	; 0x20
    153c:	6d 81       	ldd	r22, Y+5	; 0x05
    153e:	7e 81       	ldd	r23, Y+6	; 0x06
    1540:	8f 81       	ldd	r24, Y+7	; 0x07
    1542:	98 85       	ldd	r25, Y+8	; 0x08
    1544:	0e 94 5b 16 	call	0x2cb6	; 0x2cb6 <__mulsf3>
    1548:	6b 01       	movw	r12, r22
    154a:	7c 01       	movw	r14, r24
    154c:	29 a1       	ldd	r18, Y+33	; 0x21
    154e:	3a a1       	ldd	r19, Y+34	; 0x22
    1550:	4b a1       	ldd	r20, Y+35	; 0x23
    1552:	5c a1       	ldd	r21, Y+36	; 0x24
    1554:	69 85       	ldd	r22, Y+9	; 0x09
    1556:	7a 85       	ldd	r23, Y+10	; 0x0a
    1558:	8b 85       	ldd	r24, Y+11	; 0x0b
    155a:	9c 85       	ldd	r25, Y+12	; 0x0c
    155c:	0e 94 5b 16 	call	0x2cb6	; 0x2cb6 <__mulsf3>
    1560:	9b 01       	movw	r18, r22
    1562:	ac 01       	movw	r20, r24
    1564:	c7 01       	movw	r24, r14
    1566:	b6 01       	movw	r22, r12
    1568:	0e 94 d1 13 	call	0x27a2	; 0x27a2 <__addsf3>
    156c:	6b 01       	movw	r12, r22
    156e:	7c 01       	movw	r14, r24
    1570:	2d 89       	ldd	r18, Y+21	; 0x15
    1572:	3e 89       	ldd	r19, Y+22	; 0x16
    1574:	4f 89       	ldd	r20, Y+23	; 0x17
    1576:	58 8d       	ldd	r21, Y+24	; 0x18
    1578:	6d 85       	ldd	r22, Y+13	; 0x0d
    157a:	7e 85       	ldd	r23, Y+14	; 0x0e
    157c:	8f 85       	ldd	r24, Y+15	; 0x0f
    157e:	98 89       	ldd	r25, Y+16	; 0x10
    1580:	0e 94 5b 16 	call	0x2cb6	; 0x2cb6 <__mulsf3>
    1584:	9b 01       	movw	r18, r22
    1586:	ac 01       	movw	r20, r24
    1588:	c7 01       	movw	r24, r14
    158a:	b6 01       	movw	r22, r12
    158c:	0e 94 d1 13 	call	0x27a2	; 0x27a2 <__addsf3>
    1590:	9b 01       	movw	r18, r22
    1592:	ac 01       	movw	r20, r24
    1594:	0e 94 d1 13 	call	0x27a2	; 0x27a2 <__addsf3>
    1598:	6b 01       	movw	r12, r22
    159a:	7c 01       	movw	r14, r24
    159c:	69 96       	adiw	r28, 0x19	; 25
    159e:	2c ad       	ldd	r18, Y+60	; 0x3c
    15a0:	3d ad       	ldd	r19, Y+61	; 0x3d
    15a2:	4e ad       	ldd	r20, Y+62	; 0x3e
    15a4:	5f ad       	ldd	r21, Y+63	; 0x3f
    15a6:	69 97       	sbiw	r28, 0x19	; 25
    15a8:	c3 01       	movw	r24, r6
    15aa:	b2 01       	movw	r22, r4
    15ac:	0e 94 5b 16 	call	0x2cb6	; 0x2cb6 <__mulsf3>
    15b0:	20 e0       	ldi	r18, 0x00	; 0
    15b2:	30 e0       	ldi	r19, 0x00	; 0
    15b4:	40 e0       	ldi	r20, 0x00	; 0
    15b6:	5f e3       	ldi	r21, 0x3F	; 63
    15b8:	0e 94 d0 13 	call	0x27a0	; 0x27a0 <__subsf3>
    15bc:	2d a1       	ldd	r18, Y+37	; 0x25
    15be:	3e a1       	ldd	r19, Y+38	; 0x26
    15c0:	4f a1       	ldd	r20, Y+39	; 0x27
    15c2:	58 a5       	ldd	r21, Y+40	; 0x28
    15c4:	0e 94 d1 13 	call	0x27a2	; 0x27a2 <__addsf3>
    15c8:	6d a3       	std	Y+37, r22	; 0x25
    15ca:	7e a3       	std	Y+38, r23	; 0x26
    15cc:	8f a3       	std	Y+39, r24	; 0x27
    15ce:	98 a7       	std	Y+40, r25	; 0x28
    15d0:	a5 01       	movw	r20, r10
    15d2:	94 01       	movw	r18, r8
    15d4:	2d 96       	adiw	r28, 0x0d	; 13
    15d6:	6c ad       	ldd	r22, Y+60	; 0x3c
    15d8:	7d ad       	ldd	r23, Y+61	; 0x3d
    15da:	8e ad       	ldd	r24, Y+62	; 0x3e
    15dc:	9f ad       	ldd	r25, Y+63	; 0x3f
    15de:	2d 97       	sbiw	r28, 0x0d	; 13
    15e0:	0e 94 5b 16 	call	0x2cb6	; 0x2cb6 <__mulsf3>
    15e4:	2b 01       	movw	r4, r22
    15e6:	3c 01       	movw	r6, r24
    15e8:	a7 01       	movw	r20, r14
    15ea:	96 01       	movw	r18, r12
    15ec:	6d 8d       	ldd	r22, Y+29	; 0x1d
    15ee:	7e 8d       	ldd	r23, Y+30	; 0x1e
    15f0:	8f 8d       	ldd	r24, Y+31	; 0x1f
    15f2:	98 a1       	ldd	r25, Y+32	; 0x20
    15f4:	0e 94 5b 16 	call	0x2cb6	; 0x2cb6 <__mulsf3>
    15f8:	9b 01       	movw	r18, r22
    15fa:	ac 01       	movw	r20, r24
    15fc:	c3 01       	movw	r24, r6
    15fe:	b2 01       	movw	r22, r4
    1600:	0e 94 d1 13 	call	0x27a2	; 0x27a2 <__addsf3>
    1604:	69 a7       	std	Y+41, r22	; 0x29
    1606:	7a a7       	std	Y+42, r23	; 0x2a
    1608:	8b a7       	std	Y+43, r24	; 0x2b
    160a:	9c a7       	std	Y+44, r25	; 0x2c
    160c:	a5 01       	movw	r20, r10
    160e:	94 01       	movw	r18, r8
    1610:	61 96       	adiw	r28, 0x11	; 17
    1612:	6c ad       	ldd	r22, Y+60	; 0x3c
    1614:	7d ad       	ldd	r23, Y+61	; 0x3d
    1616:	8e ad       	ldd	r24, Y+62	; 0x3e
    1618:	9f ad       	ldd	r25, Y+63	; 0x3f
    161a:	61 97       	sbiw	r28, 0x11	; 17
    161c:	0e 94 5b 16 	call	0x2cb6	; 0x2cb6 <__mulsf3>
    1620:	2b 01       	movw	r4, r22
    1622:	3c 01       	movw	r6, r24
    1624:	a7 01       	movw	r20, r14
    1626:	96 01       	movw	r18, r12
    1628:	69 a1       	ldd	r22, Y+33	; 0x21
    162a:	7a a1       	ldd	r23, Y+34	; 0x22
    162c:	8b a1       	ldd	r24, Y+35	; 0x23
    162e:	9c a1       	ldd	r25, Y+36	; 0x24
    1630:	0e 94 5b 16 	call	0x2cb6	; 0x2cb6 <__mulsf3>
    1634:	9b 01       	movw	r18, r22
    1636:	ac 01       	movw	r20, r24
    1638:	c3 01       	movw	r24, r6
    163a:	b2 01       	movw	r22, r4
    163c:	0e 94 d1 13 	call	0x27a2	; 0x27a2 <__addsf3>
    1640:	6d a7       	std	Y+45, r22	; 0x2d
    1642:	7e a7       	std	Y+46, r23	; 0x2e
    1644:	8f a7       	std	Y+47, r24	; 0x2f
    1646:	98 ab       	std	Y+48, r25	; 0x30
    1648:	a5 01       	movw	r20, r10
    164a:	94 01       	movw	r18, r8
    164c:	65 96       	adiw	r28, 0x15	; 21
    164e:	6c ad       	ldd	r22, Y+60	; 0x3c
    1650:	7d ad       	ldd	r23, Y+61	; 0x3d
    1652:	8e ad       	ldd	r24, Y+62	; 0x3e
    1654:	9f ad       	ldd	r25, Y+63	; 0x3f
    1656:	65 97       	sbiw	r28, 0x15	; 21
    1658:	0e 94 5b 16 	call	0x2cb6	; 0x2cb6 <__mulsf3>
    165c:	2b 01       	movw	r4, r22
    165e:	3c 01       	movw	r6, r24
    1660:	a7 01       	movw	r20, r14
    1662:	96 01       	movw	r18, r12
    1664:	6d 89       	ldd	r22, Y+21	; 0x15
    1666:	7e 89       	ldd	r23, Y+22	; 0x16
    1668:	8f 89       	ldd	r24, Y+23	; 0x17
    166a:	98 8d       	ldd	r25, Y+24	; 0x18
    166c:	0e 94 5b 16 	call	0x2cb6	; 0x2cb6 <__mulsf3>
    1670:	9b 01       	movw	r18, r22
    1672:	ac 01       	movw	r20, r24
    1674:	c3 01       	movw	r24, r6
    1676:	b2 01       	movw	r22, r4
    1678:	0e 94 d1 13 	call	0x27a2	; 0x27a2 <__addsf3>
    167c:	6b 01       	movw	r12, r22
    167e:	7c 01       	movw	r14, r24
    1680:	2d a1       	ldd	r18, Y+37	; 0x25
    1682:	3e a1       	ldd	r19, Y+38	; 0x26
    1684:	4f a1       	ldd	r20, Y+39	; 0x27
    1686:	58 a5       	ldd	r21, Y+40	; 0x28
    1688:	69 ad       	ldd	r22, Y+57	; 0x39
    168a:	7a ad       	ldd	r23, Y+58	; 0x3a
    168c:	8b ad       	ldd	r24, Y+59	; 0x3b
    168e:	9c ad       	ldd	r25, Y+60	; 0x3c
    1690:	0e 94 5b 16 	call	0x2cb6	; 0x2cb6 <__mulsf3>
    1694:	4b 01       	movw	r8, r22
    1696:	5c 01       	movw	r10, r24
    1698:	29 a1       	ldd	r18, Y+33	; 0x21
    169a:	3a a1       	ldd	r19, Y+34	; 0x22
    169c:	4b a1       	ldd	r20, Y+35	; 0x23
    169e:	5c a1       	ldd	r21, Y+36	; 0x24
    16a0:	21 96       	adiw	r28, 0x01	; 1
    16a2:	6c ad       	ldd	r22, Y+60	; 0x3c
    16a4:	7d ad       	ldd	r23, Y+61	; 0x3d
    16a6:	8e ad       	ldd	r24, Y+62	; 0x3e
    16a8:	9f ad       	ldd	r25, Y+63	; 0x3f
    16aa:	21 97       	sbiw	r28, 0x01	; 1
    16ac:	0e 94 5b 16 	call	0x2cb6	; 0x2cb6 <__mulsf3>
    16b0:	9b 01       	movw	r18, r22
    16b2:	ac 01       	movw	r20, r24
    16b4:	c5 01       	movw	r24, r10
    16b6:	b4 01       	movw	r22, r8
    16b8:	0e 94 d0 13 	call	0x27a0	; 0x27a0 <__subsf3>
    16bc:	4b 01       	movw	r8, r22
    16be:	5c 01       	movw	r10, r24
    16c0:	a7 01       	movw	r20, r14
    16c2:	96 01       	movw	r18, r12
    16c4:	69 85       	ldd	r22, Y+9	; 0x09
    16c6:	7a 85       	ldd	r23, Y+10	; 0x0a
    16c8:	8b 85       	ldd	r24, Y+11	; 0x0b
    16ca:	9c 85       	ldd	r25, Y+12	; 0x0c
    16cc:	0e 94 5b 16 	call	0x2cb6	; 0x2cb6 <__mulsf3>
    16d0:	2b 01       	movw	r4, r22
    16d2:	3c 01       	movw	r6, r24
    16d4:	2d a5       	ldd	r18, Y+45	; 0x2d
    16d6:	3e a5       	ldd	r19, Y+46	; 0x2e
    16d8:	4f a5       	ldd	r20, Y+47	; 0x2f
    16da:	58 a9       	ldd	r21, Y+48	; 0x30
    16dc:	6d 85       	ldd	r22, Y+13	; 0x0d
    16de:	7e 85       	ldd	r23, Y+14	; 0x0e
    16e0:	8f 85       	ldd	r24, Y+15	; 0x0f
    16e2:	98 89       	ldd	r25, Y+16	; 0x10
    16e4:	0e 94 5b 16 	call	0x2cb6	; 0x2cb6 <__mulsf3>
    16e8:	9b 01       	movw	r18, r22
    16ea:	ac 01       	movw	r20, r24
    16ec:	c3 01       	movw	r24, r6
    16ee:	b2 01       	movw	r22, r4
    16f0:	0e 94 d0 13 	call	0x27a0	; 0x27a0 <__subsf3>
    16f4:	9b 01       	movw	r18, r22
    16f6:	ac 01       	movw	r20, r24
    16f8:	c5 01       	movw	r24, r10
    16fa:	b4 01       	movw	r22, r8
    16fc:	0e 94 d1 13 	call	0x27a2	; 0x27a2 <__addsf3>
    1700:	6d 8b       	std	Y+21, r22	; 0x15
    1702:	7e 8b       	std	Y+22, r23	; 0x16
    1704:	8f 8b       	std	Y+23, r24	; 0x17
    1706:	98 8f       	std	Y+24, r25	; 0x18
    1708:	2d 8d       	ldd	r18, Y+29	; 0x1d
    170a:	3e 8d       	ldd	r19, Y+30	; 0x1e
    170c:	4f 8d       	ldd	r20, Y+31	; 0x1f
    170e:	58 a1       	ldd	r21, Y+32	; 0x20
    1710:	21 96       	adiw	r28, 0x01	; 1
    1712:	6c ad       	ldd	r22, Y+60	; 0x3c
    1714:	7d ad       	ldd	r23, Y+61	; 0x3d
    1716:	8e ad       	ldd	r24, Y+62	; 0x3e
    1718:	9f ad       	ldd	r25, Y+63	; 0x3f
    171a:	21 97       	sbiw	r28, 0x01	; 1
    171c:	0e 94 5b 16 	call	0x2cb6	; 0x2cb6 <__mulsf3>
    1720:	4b 01       	movw	r8, r22
    1722:	5c 01       	movw	r10, r24
    1724:	2d a1       	ldd	r18, Y+37	; 0x25
    1726:	3e a1       	ldd	r19, Y+38	; 0x26
    1728:	4f a1       	ldd	r20, Y+39	; 0x27
    172a:	58 a5       	ldd	r21, Y+40	; 0x28
    172c:	6d a9       	ldd	r22, Y+53	; 0x35
    172e:	7e a9       	ldd	r23, Y+54	; 0x36
    1730:	8f a9       	ldd	r24, Y+55	; 0x37
    1732:	98 ad       	ldd	r25, Y+56	; 0x38
    1734:	0e 94 5b 16 	call	0x2cb6	; 0x2cb6 <__mulsf3>
    1738:	9b 01       	movw	r18, r22
    173a:	ac 01       	movw	r20, r24
    173c:	c5 01       	movw	r24, r10
    173e:	b4 01       	movw	r22, r8
    1740:	0e 94 d0 13 	call	0x27a0	; 0x27a0 <__subsf3>
    1744:	4b 01       	movw	r8, r22
    1746:	5c 01       	movw	r10, r24
    1748:	29 a5       	ldd	r18, Y+41	; 0x29
    174a:	3a a5       	ldd	r19, Y+42	; 0x2a
    174c:	4b a5       	ldd	r20, Y+43	; 0x2b
    174e:	5c a5       	ldd	r21, Y+44	; 0x2c
    1750:	6d 85       	ldd	r22, Y+13	; 0x0d
    1752:	7e 85       	ldd	r23, Y+14	; 0x0e
    1754:	8f 85       	ldd	r24, Y+15	; 0x0f
    1756:	98 89       	ldd	r25, Y+16	; 0x10
    1758:	0e 94 5b 16 	call	0x2cb6	; 0x2cb6 <__mulsf3>
    175c:	2b 01       	movw	r4, r22
    175e:	3c 01       	movw	r6, r24
    1760:	a7 01       	movw	r20, r14
    1762:	96 01       	movw	r18, r12
    1764:	6d 81       	ldd	r22, Y+5	; 0x05
    1766:	7e 81       	ldd	r23, Y+6	; 0x06
    1768:	8f 81       	ldd	r24, Y+7	; 0x07
    176a:	98 85       	ldd	r25, Y+8	; 0x08
    176c:	0e 94 5b 16 	call	0x2cb6	; 0x2cb6 <__mulsf3>
    1770:	9b 01       	movw	r18, r22
    1772:	ac 01       	movw	r20, r24
    1774:	c3 01       	movw	r24, r6
    1776:	b2 01       	movw	r22, r4
    1778:	0e 94 d0 13 	call	0x27a0	; 0x27a0 <__subsf3>
    177c:	9b 01       	movw	r18, r22
    177e:	ac 01       	movw	r20, r24
    1780:	c5 01       	movw	r24, r10
    1782:	b4 01       	movw	r22, r8
    1784:	0e 94 d1 13 	call	0x27a2	; 0x27a2 <__addsf3>
    1788:	4b 01       	movw	r8, r22
    178a:	5c 01       	movw	r10, r24
    178c:	29 a1       	ldd	r18, Y+33	; 0x21
    178e:	3a a1       	ldd	r19, Y+34	; 0x22
    1790:	4b a1       	ldd	r20, Y+35	; 0x23
    1792:	5c a1       	ldd	r21, Y+36	; 0x24
    1794:	6d a9       	ldd	r22, Y+53	; 0x35
    1796:	7e a9       	ldd	r23, Y+54	; 0x36
    1798:	8f a9       	ldd	r24, Y+55	; 0x37
    179a:	98 ad       	ldd	r25, Y+56	; 0x38
    179c:	0e 94 5b 16 	call	0x2cb6	; 0x2cb6 <__mulsf3>
    17a0:	6b 01       	movw	r12, r22
    17a2:	7c 01       	movw	r14, r24
    17a4:	2d 8d       	ldd	r18, Y+29	; 0x1d
    17a6:	3e 8d       	ldd	r19, Y+30	; 0x1e
    17a8:	4f 8d       	ldd	r20, Y+31	; 0x1f
    17aa:	58 a1       	ldd	r21, Y+32	; 0x20
    17ac:	69 ad       	ldd	r22, Y+57	; 0x39
    17ae:	7a ad       	ldd	r23, Y+58	; 0x3a
    17b0:	8b ad       	ldd	r24, Y+59	; 0x3b
    17b2:	9c ad       	ldd	r25, Y+60	; 0x3c
    17b4:	0e 94 5b 16 	call	0x2cb6	; 0x2cb6 <__mulsf3>
    17b8:	9b 01       	movw	r18, r22
    17ba:	ac 01       	movw	r20, r24
    17bc:	c7 01       	movw	r24, r14
    17be:	b6 01       	movw	r22, r12
    17c0:	0e 94 d0 13 	call	0x27a0	; 0x27a0 <__subsf3>
    17c4:	6b 01       	movw	r12, r22
    17c6:	7c 01       	movw	r14, r24
    17c8:	2d a5       	ldd	r18, Y+45	; 0x2d
    17ca:	3e a5       	ldd	r19, Y+46	; 0x2e
    17cc:	4f a5       	ldd	r20, Y+47	; 0x2f
    17ce:	58 a9       	ldd	r21, Y+48	; 0x30
    17d0:	6d 81       	ldd	r22, Y+5	; 0x05
    17d2:	7e 81       	ldd	r23, Y+6	; 0x06
    17d4:	8f 81       	ldd	r24, Y+7	; 0x07
    17d6:	98 85       	ldd	r25, Y+8	; 0x08
    17d8:	0e 94 5b 16 	call	0x2cb6	; 0x2cb6 <__mulsf3>
    17dc:	2b 01       	movw	r4, r22
    17de:	3c 01       	movw	r6, r24
    17e0:	29 a5       	ldd	r18, Y+41	; 0x29
    17e2:	3a a5       	ldd	r19, Y+42	; 0x2a
    17e4:	4b a5       	ldd	r20, Y+43	; 0x2b
    17e6:	5c a5       	ldd	r21, Y+44	; 0x2c
    17e8:	69 85       	ldd	r22, Y+9	; 0x09
    17ea:	7a 85       	ldd	r23, Y+10	; 0x0a
    17ec:	8b 85       	ldd	r24, Y+11	; 0x0b
    17ee:	9c 85       	ldd	r25, Y+12	; 0x0c
    17f0:	0e 94 5b 16 	call	0x2cb6	; 0x2cb6 <__mulsf3>
    17f4:	9b 01       	movw	r18, r22
    17f6:	ac 01       	movw	r20, r24
    17f8:	c3 01       	movw	r24, r6
    17fa:	b2 01       	movw	r22, r4
    17fc:	0e 94 d0 13 	call	0x27a0	; 0x27a0 <__subsf3>
    1800:	9b 01       	movw	r18, r22
    1802:	ac 01       	movw	r20, r24
    1804:	c7 01       	movw	r24, r14
    1806:	b6 01       	movw	r22, r12
    1808:	0e 94 d1 13 	call	0x27a2	; 0x27a2 <__addsf3>
    180c:	6b 01       	movw	r12, r22
    180e:	7c 01       	movw	r14, r24
    1810:	60 91 8c 00 	lds	r22, 0x008C	; 0x80008c <twoKi>
    1814:	70 91 8d 00 	lds	r23, 0x008D	; 0x80008d <twoKi+0x1>
    1818:	80 91 8e 00 	lds	r24, 0x008E	; 0x80008e <twoKi+0x2>
    181c:	90 91 8f 00 	lds	r25, 0x008F	; 0x80008f <twoKi+0x3>
    1820:	20 e0       	ldi	r18, 0x00	; 0
    1822:	30 e0       	ldi	r19, 0x00	; 0
    1824:	a9 01       	movw	r20, r18
    1826:	0e 94 4e 16 	call	0x2c9c	; 0x2c9c <__gesf2>
    182a:	18 16       	cp	r1, r24
    182c:	0c f0       	brlt	.+2      	; 0x1830 <MahonyAHRSupdate+0x9a0>
    182e:	ab c0       	rjmp	.+342    	; 0x1986 <MahonyAHRSupdate+0xaf6>
    1830:	20 91 8c 00 	lds	r18, 0x008C	; 0x80008c <twoKi>
    1834:	30 91 8d 00 	lds	r19, 0x008D	; 0x80008d <twoKi+0x1>
    1838:	40 91 8e 00 	lds	r20, 0x008E	; 0x80008e <twoKi+0x2>
    183c:	50 91 8f 00 	lds	r21, 0x008F	; 0x80008f <twoKi+0x3>
    1840:	40 90 7c 00 	lds	r4, 0x007C	; 0x80007c <integralFBx>
    1844:	50 90 7d 00 	lds	r5, 0x007D	; 0x80007d <integralFBx+0x1>
    1848:	60 90 7e 00 	lds	r6, 0x007E	; 0x80007e <integralFBx+0x2>
    184c:	70 90 7f 00 	lds	r7, 0x007F	; 0x80007f <integralFBx+0x3>
    1850:	6d 89       	ldd	r22, Y+21	; 0x15
    1852:	7e 89       	ldd	r23, Y+22	; 0x16
    1854:	8f 89       	ldd	r24, Y+23	; 0x17
    1856:	98 8d       	ldd	r25, Y+24	; 0x18
    1858:	0e 94 5b 16 	call	0x2cb6	; 0x2cb6 <__mulsf3>
    185c:	2d eb       	ldi	r18, 0xBD	; 189
    185e:	37 e3       	ldi	r19, 0x37	; 55
    1860:	46 e0       	ldi	r20, 0x06	; 6
    1862:	5c e3       	ldi	r21, 0x3C	; 60
    1864:	0e 94 5b 16 	call	0x2cb6	; 0x2cb6 <__mulsf3>
    1868:	a3 01       	movw	r20, r6
    186a:	92 01       	movw	r18, r4
    186c:	0e 94 d1 13 	call	0x27a2	; 0x27a2 <__addsf3>
    1870:	60 93 7c 00 	sts	0x007C, r22	; 0x80007c <integralFBx>
    1874:	70 93 7d 00 	sts	0x007D, r23	; 0x80007d <integralFBx+0x1>
    1878:	80 93 7e 00 	sts	0x007E, r24	; 0x80007e <integralFBx+0x2>
    187c:	90 93 7f 00 	sts	0x007F, r25	; 0x80007f <integralFBx+0x3>
    1880:	20 91 8c 00 	lds	r18, 0x008C	; 0x80008c <twoKi>
    1884:	30 91 8d 00 	lds	r19, 0x008D	; 0x80008d <twoKi+0x1>
    1888:	40 91 8e 00 	lds	r20, 0x008E	; 0x80008e <twoKi+0x2>
    188c:	50 91 8f 00 	lds	r21, 0x008F	; 0x80008f <twoKi+0x3>
    1890:	40 90 78 00 	lds	r4, 0x0078	; 0x800078 <integralFBy>
    1894:	50 90 79 00 	lds	r5, 0x0079	; 0x800079 <integralFBy+0x1>
    1898:	60 90 7a 00 	lds	r6, 0x007A	; 0x80007a <integralFBy+0x2>
    189c:	70 90 7b 00 	lds	r7, 0x007B	; 0x80007b <integralFBy+0x3>
    18a0:	c5 01       	movw	r24, r10
    18a2:	b4 01       	movw	r22, r8
    18a4:	0e 94 5b 16 	call	0x2cb6	; 0x2cb6 <__mulsf3>
    18a8:	2d eb       	ldi	r18, 0xBD	; 189
    18aa:	37 e3       	ldi	r19, 0x37	; 55
    18ac:	46 e0       	ldi	r20, 0x06	; 6
    18ae:	5c e3       	ldi	r21, 0x3C	; 60
    18b0:	0e 94 5b 16 	call	0x2cb6	; 0x2cb6 <__mulsf3>
    18b4:	a3 01       	movw	r20, r6
    18b6:	92 01       	movw	r18, r4
    18b8:	0e 94 d1 13 	call	0x27a2	; 0x27a2 <__addsf3>
    18bc:	60 93 78 00 	sts	0x0078, r22	; 0x800078 <integralFBy>
    18c0:	70 93 79 00 	sts	0x0079, r23	; 0x800079 <integralFBy+0x1>
    18c4:	80 93 7a 00 	sts	0x007A, r24	; 0x80007a <integralFBy+0x2>
    18c8:	90 93 7b 00 	sts	0x007B, r25	; 0x80007b <integralFBy+0x3>
    18cc:	20 91 8c 00 	lds	r18, 0x008C	; 0x80008c <twoKi>
    18d0:	30 91 8d 00 	lds	r19, 0x008D	; 0x80008d <twoKi+0x1>
    18d4:	40 91 8e 00 	lds	r20, 0x008E	; 0x80008e <twoKi+0x2>
    18d8:	50 91 8f 00 	lds	r21, 0x008F	; 0x80008f <twoKi+0x3>
    18dc:	40 90 74 00 	lds	r4, 0x0074	; 0x800074 <integralFBz>
    18e0:	50 90 75 00 	lds	r5, 0x0075	; 0x800075 <integralFBz+0x1>
    18e4:	60 90 76 00 	lds	r6, 0x0076	; 0x800076 <integralFBz+0x2>
    18e8:	70 90 77 00 	lds	r7, 0x0077	; 0x800077 <integralFBz+0x3>
    18ec:	c7 01       	movw	r24, r14
    18ee:	b6 01       	movw	r22, r12
    18f0:	0e 94 5b 16 	call	0x2cb6	; 0x2cb6 <__mulsf3>
    18f4:	2d eb       	ldi	r18, 0xBD	; 189
    18f6:	37 e3       	ldi	r19, 0x37	; 55
    18f8:	46 e0       	ldi	r20, 0x06	; 6
    18fa:	5c e3       	ldi	r21, 0x3C	; 60
    18fc:	0e 94 5b 16 	call	0x2cb6	; 0x2cb6 <__mulsf3>
    1900:	a3 01       	movw	r20, r6
    1902:	92 01       	movw	r18, r4
    1904:	0e 94 d1 13 	call	0x27a2	; 0x27a2 <__addsf3>
    1908:	60 93 74 00 	sts	0x0074, r22	; 0x800074 <integralFBz>
    190c:	70 93 75 00 	sts	0x0075, r23	; 0x800075 <integralFBz+0x1>
    1910:	80 93 76 00 	sts	0x0076, r24	; 0x800076 <integralFBz+0x2>
    1914:	90 93 77 00 	sts	0x0077, r25	; 0x800077 <integralFBz+0x3>
    1918:	20 91 7c 00 	lds	r18, 0x007C	; 0x80007c <integralFBx>
    191c:	30 91 7d 00 	lds	r19, 0x007D	; 0x80007d <integralFBx+0x1>
    1920:	40 91 7e 00 	lds	r20, 0x007E	; 0x80007e <integralFBx+0x2>
    1924:	50 91 7f 00 	lds	r21, 0x007F	; 0x80007f <integralFBx+0x3>
    1928:	69 89       	ldd	r22, Y+17	; 0x11
    192a:	7a 89       	ldd	r23, Y+18	; 0x12
    192c:	8b 89       	ldd	r24, Y+19	; 0x13
    192e:	9c 89       	ldd	r25, Y+20	; 0x14
    1930:	0e 94 d1 13 	call	0x27a2	; 0x27a2 <__addsf3>
    1934:	69 8b       	std	Y+17, r22	; 0x11
    1936:	7a 8b       	std	Y+18, r23	; 0x12
    1938:	8b 8b       	std	Y+19, r24	; 0x13
    193a:	9c 8b       	std	Y+20, r25	; 0x14
    193c:	20 91 78 00 	lds	r18, 0x0078	; 0x800078 <integralFBy>
    1940:	30 91 79 00 	lds	r19, 0x0079	; 0x800079 <integralFBy+0x1>
    1944:	40 91 7a 00 	lds	r20, 0x007A	; 0x80007a <integralFBy+0x2>
    1948:	50 91 7b 00 	lds	r21, 0x007B	; 0x80007b <integralFBy+0x3>
    194c:	69 8d       	ldd	r22, Y+25	; 0x19
    194e:	7a 8d       	ldd	r23, Y+26	; 0x1a
    1950:	8b 8d       	ldd	r24, Y+27	; 0x1b
    1952:	9c 8d       	ldd	r25, Y+28	; 0x1c
    1954:	0e 94 d1 13 	call	0x27a2	; 0x27a2 <__addsf3>
    1958:	69 8f       	std	Y+25, r22	; 0x19
    195a:	7a 8f       	std	Y+26, r23	; 0x1a
    195c:	8b 8f       	std	Y+27, r24	; 0x1b
    195e:	9c 8f       	std	Y+28, r25	; 0x1c
    1960:	20 91 74 00 	lds	r18, 0x0074	; 0x800074 <integralFBz>
    1964:	30 91 75 00 	lds	r19, 0x0075	; 0x800075 <integralFBz+0x1>
    1968:	40 91 76 00 	lds	r20, 0x0076	; 0x800076 <integralFBz+0x2>
    196c:	50 91 77 00 	lds	r21, 0x0077	; 0x800077 <integralFBz+0x3>
    1970:	69 81       	ldd	r22, Y+1	; 0x01
    1972:	7a 81       	ldd	r23, Y+2	; 0x02
    1974:	8b 81       	ldd	r24, Y+3	; 0x03
    1976:	9c 81       	ldd	r25, Y+4	; 0x04
    1978:	0e 94 d1 13 	call	0x27a2	; 0x27a2 <__addsf3>
    197c:	69 83       	std	Y+1, r22	; 0x01
    197e:	7a 83       	std	Y+2, r23	; 0x02
    1980:	8b 83       	std	Y+3, r24	; 0x03
    1982:	9c 83       	std	Y+4, r25	; 0x04
    1984:	18 c0       	rjmp	.+48     	; 0x19b6 <MahonyAHRSupdate+0xb26>
    1986:	10 92 7c 00 	sts	0x007C, r1	; 0x80007c <integralFBx>
    198a:	10 92 7d 00 	sts	0x007D, r1	; 0x80007d <integralFBx+0x1>
    198e:	10 92 7e 00 	sts	0x007E, r1	; 0x80007e <integralFBx+0x2>
    1992:	10 92 7f 00 	sts	0x007F, r1	; 0x80007f <integralFBx+0x3>
    1996:	10 92 78 00 	sts	0x0078, r1	; 0x800078 <integralFBy>
    199a:	10 92 79 00 	sts	0x0079, r1	; 0x800079 <integralFBy+0x1>
    199e:	10 92 7a 00 	sts	0x007A, r1	; 0x80007a <integralFBy+0x2>
    19a2:	10 92 7b 00 	sts	0x007B, r1	; 0x80007b <integralFBy+0x3>
    19a6:	10 92 74 00 	sts	0x0074, r1	; 0x800074 <integralFBz>
    19aa:	10 92 75 00 	sts	0x0075, r1	; 0x800075 <integralFBz+0x1>
    19ae:	10 92 76 00 	sts	0x0076, r1	; 0x800076 <integralFBz+0x2>
    19b2:	10 92 77 00 	sts	0x0077, r1	; 0x800077 <integralFBz+0x3>
    19b6:	20 91 64 00 	lds	r18, 0x0064	; 0x800064 <twoKp>
    19ba:	30 91 65 00 	lds	r19, 0x0065	; 0x800065 <twoKp+0x1>
    19be:	40 91 66 00 	lds	r20, 0x0066	; 0x800066 <twoKp+0x2>
    19c2:	50 91 67 00 	lds	r21, 0x0067	; 0x800067 <twoKp+0x3>
    19c6:	6d 89       	ldd	r22, Y+21	; 0x15
    19c8:	7e 89       	ldd	r23, Y+22	; 0x16
    19ca:	8f 89       	ldd	r24, Y+23	; 0x17
    19cc:	98 8d       	ldd	r25, Y+24	; 0x18
    19ce:	0e 94 5b 16 	call	0x2cb6	; 0x2cb6 <__mulsf3>
    19d2:	9b 01       	movw	r18, r22
    19d4:	ac 01       	movw	r20, r24
    19d6:	69 89       	ldd	r22, Y+17	; 0x11
    19d8:	7a 89       	ldd	r23, Y+18	; 0x12
    19da:	8b 89       	ldd	r24, Y+19	; 0x13
    19dc:	9c 89       	ldd	r25, Y+20	; 0x14
    19de:	0e 94 d1 13 	call	0x27a2	; 0x27a2 <__addsf3>
    19e2:	69 8b       	std	Y+17, r22	; 0x11
    19e4:	7a 8b       	std	Y+18, r23	; 0x12
    19e6:	8b 8b       	std	Y+19, r24	; 0x13
    19e8:	9c 8b       	std	Y+20, r25	; 0x14
    19ea:	20 91 64 00 	lds	r18, 0x0064	; 0x800064 <twoKp>
    19ee:	30 91 65 00 	lds	r19, 0x0065	; 0x800065 <twoKp+0x1>
    19f2:	40 91 66 00 	lds	r20, 0x0066	; 0x800066 <twoKp+0x2>
    19f6:	50 91 67 00 	lds	r21, 0x0067	; 0x800067 <twoKp+0x3>
    19fa:	c5 01       	movw	r24, r10
    19fc:	b4 01       	movw	r22, r8
    19fe:	0e 94 5b 16 	call	0x2cb6	; 0x2cb6 <__mulsf3>
    1a02:	9b 01       	movw	r18, r22
    1a04:	ac 01       	movw	r20, r24
    1a06:	69 8d       	ldd	r22, Y+25	; 0x19
    1a08:	7a 8d       	ldd	r23, Y+26	; 0x1a
    1a0a:	8b 8d       	ldd	r24, Y+27	; 0x1b
    1a0c:	9c 8d       	ldd	r25, Y+28	; 0x1c
    1a0e:	0e 94 d1 13 	call	0x27a2	; 0x27a2 <__addsf3>
    1a12:	69 8f       	std	Y+25, r22	; 0x19
    1a14:	7a 8f       	std	Y+26, r23	; 0x1a
    1a16:	8b 8f       	std	Y+27, r24	; 0x1b
    1a18:	9c 8f       	std	Y+28, r25	; 0x1c
    1a1a:	20 91 64 00 	lds	r18, 0x0064	; 0x800064 <twoKp>
    1a1e:	30 91 65 00 	lds	r19, 0x0065	; 0x800065 <twoKp+0x1>
    1a22:	40 91 66 00 	lds	r20, 0x0066	; 0x800066 <twoKp+0x2>
    1a26:	50 91 67 00 	lds	r21, 0x0067	; 0x800067 <twoKp+0x3>
    1a2a:	c7 01       	movw	r24, r14
    1a2c:	b6 01       	movw	r22, r12
    1a2e:	0e 94 5b 16 	call	0x2cb6	; 0x2cb6 <__mulsf3>
    1a32:	9b 01       	movw	r18, r22
    1a34:	ac 01       	movw	r20, r24
    1a36:	69 81       	ldd	r22, Y+1	; 0x01
    1a38:	7a 81       	ldd	r23, Y+2	; 0x02
    1a3a:	8b 81       	ldd	r24, Y+3	; 0x03
    1a3c:	9c 81       	ldd	r25, Y+4	; 0x04
    1a3e:	0e 94 d1 13 	call	0x27a2	; 0x27a2 <__addsf3>
    1a42:	69 83       	std	Y+1, r22	; 0x01
    1a44:	7a 83       	std	Y+2, r23	; 0x02
    1a46:	8b 83       	std	Y+3, r24	; 0x03
    1a48:	9c 83       	std	Y+4, r25	; 0x04
    1a4a:	2d eb       	ldi	r18, 0xBD	; 189
    1a4c:	37 e3       	ldi	r19, 0x37	; 55
    1a4e:	46 e8       	ldi	r20, 0x86	; 134
    1a50:	5b e3       	ldi	r21, 0x3B	; 59
    1a52:	69 89       	ldd	r22, Y+17	; 0x11
    1a54:	7a 89       	ldd	r23, Y+18	; 0x12
    1a56:	8b 89       	ldd	r24, Y+19	; 0x13
    1a58:	9c 89       	ldd	r25, Y+20	; 0x14
    1a5a:	0e 94 5b 16 	call	0x2cb6	; 0x2cb6 <__mulsf3>
    1a5e:	6d 83       	std	Y+5, r22	; 0x05
    1a60:	7e 83       	std	Y+6, r23	; 0x06
    1a62:	8f 83       	std	Y+7, r24	; 0x07
    1a64:	98 87       	std	Y+8, r25	; 0x08
    1a66:	2d eb       	ldi	r18, 0xBD	; 189
    1a68:	37 e3       	ldi	r19, 0x37	; 55
    1a6a:	46 e8       	ldi	r20, 0x86	; 134
    1a6c:	5b e3       	ldi	r21, 0x3B	; 59
    1a6e:	69 8d       	ldd	r22, Y+25	; 0x19
    1a70:	7a 8d       	ldd	r23, Y+26	; 0x1a
    1a72:	8b 8d       	ldd	r24, Y+27	; 0x1b
    1a74:	9c 8d       	ldd	r25, Y+28	; 0x1c
    1a76:	0e 94 5b 16 	call	0x2cb6	; 0x2cb6 <__mulsf3>
    1a7a:	69 87       	std	Y+9, r22	; 0x09
    1a7c:	7a 87       	std	Y+10, r23	; 0x0a
    1a7e:	8b 87       	std	Y+11, r24	; 0x0b
    1a80:	9c 87       	std	Y+12, r25	; 0x0c
    1a82:	2d eb       	ldi	r18, 0xBD	; 189
    1a84:	37 e3       	ldi	r19, 0x37	; 55
    1a86:	46 e8       	ldi	r20, 0x86	; 134
    1a88:	5b e3       	ldi	r21, 0x3B	; 59
    1a8a:	69 81       	ldd	r22, Y+1	; 0x01
    1a8c:	7a 81       	ldd	r23, Y+2	; 0x02
    1a8e:	8b 81       	ldd	r24, Y+3	; 0x03
    1a90:	9c 81       	ldd	r25, Y+4	; 0x04
    1a92:	0e 94 5b 16 	call	0x2cb6	; 0x2cb6 <__mulsf3>
    1a96:	6d 87       	std	Y+13, r22	; 0x0d
    1a98:	7e 87       	std	Y+14, r23	; 0x0e
    1a9a:	8f 87       	std	Y+15, r24	; 0x0f
    1a9c:	98 8b       	std	Y+16, r25	; 0x10
    1a9e:	e0 90 60 00 	lds	r14, 0x0060	; 0x800060 <__data_start>
    1aa2:	f0 90 61 00 	lds	r15, 0x0061	; 0x800061 <__data_start+0x1>
    1aa6:	00 91 62 00 	lds	r16, 0x0062	; 0x800062 <__data_start+0x2>
    1aaa:	10 91 63 00 	lds	r17, 0x0063	; 0x800063 <__data_start+0x3>
    1aae:	e9 8a       	std	Y+17, r14	; 0x11
    1ab0:	fa 8a       	std	Y+18, r15	; 0x12
    1ab2:	0b 8b       	std	Y+19, r16	; 0x13
    1ab4:	1c 8b       	std	Y+20, r17	; 0x14
    1ab6:	80 90 88 00 	lds	r8, 0x0088	; 0x800088 <q1>
    1aba:	90 90 89 00 	lds	r9, 0x0089	; 0x800089 <q1+0x1>
    1abe:	a0 90 8a 00 	lds	r10, 0x008A	; 0x80008a <q1+0x2>
    1ac2:	b0 90 8b 00 	lds	r11, 0x008B	; 0x80008b <q1+0x3>
    1ac6:	e0 90 84 00 	lds	r14, 0x0084	; 0x800084 <q2>
    1aca:	f0 90 85 00 	lds	r15, 0x0085	; 0x800085 <q2+0x1>
    1ace:	00 91 86 00 	lds	r16, 0x0086	; 0x800086 <q2+0x2>
    1ad2:	10 91 87 00 	lds	r17, 0x0087	; 0x800087 <q2+0x3>
    1ad6:	e9 8e       	std	Y+25, r14	; 0x19
    1ad8:	fa 8e       	std	Y+26, r15	; 0x1a
    1ada:	0b 8f       	std	Y+27, r16	; 0x1b
    1adc:	1c 8f       	std	Y+28, r17	; 0x1c
    1ade:	40 90 80 00 	lds	r4, 0x0080	; 0x800080 <q3>
    1ae2:	50 90 81 00 	lds	r5, 0x0081	; 0x800081 <q3+0x1>
    1ae6:	60 90 82 00 	lds	r6, 0x0082	; 0x800082 <q3+0x2>
    1aea:	70 90 83 00 	lds	r7, 0x0083	; 0x800083 <q3+0x3>
    1aee:	c0 90 60 00 	lds	r12, 0x0060	; 0x800060 <__data_start>
    1af2:	d0 90 61 00 	lds	r13, 0x0061	; 0x800061 <__data_start+0x1>
    1af6:	e0 90 62 00 	lds	r14, 0x0062	; 0x800062 <__data_start+0x2>
    1afa:	f0 90 63 00 	lds	r15, 0x0063	; 0x800063 <__data_start+0x3>
    1afe:	c5 01       	movw	r24, r10
    1b00:	b4 01       	movw	r22, r8
    1b02:	90 58       	subi	r25, 0x80	; 128
    1b04:	2d 81       	ldd	r18, Y+5	; 0x05
    1b06:	3e 81       	ldd	r19, Y+6	; 0x06
    1b08:	4f 81       	ldd	r20, Y+7	; 0x07
    1b0a:	58 85       	ldd	r21, Y+8	; 0x08
    1b0c:	0e 94 5b 16 	call	0x2cb6	; 0x2cb6 <__mulsf3>
    1b10:	69 83       	std	Y+1, r22	; 0x01
    1b12:	7a 83       	std	Y+2, r23	; 0x02
    1b14:	8b 83       	std	Y+3, r24	; 0x03
    1b16:	9c 83       	std	Y+4, r25	; 0x04
    1b18:	29 8d       	ldd	r18, Y+25	; 0x19
    1b1a:	3a 8d       	ldd	r19, Y+26	; 0x1a
    1b1c:	4b 8d       	ldd	r20, Y+27	; 0x1b
    1b1e:	5c 8d       	ldd	r21, Y+28	; 0x1c
    1b20:	69 85       	ldd	r22, Y+9	; 0x09
    1b22:	7a 85       	ldd	r23, Y+10	; 0x0a
    1b24:	8b 85       	ldd	r24, Y+11	; 0x0b
    1b26:	9c 85       	ldd	r25, Y+12	; 0x0c
    1b28:	0e 94 5b 16 	call	0x2cb6	; 0x2cb6 <__mulsf3>
    1b2c:	9b 01       	movw	r18, r22
    1b2e:	ac 01       	movw	r20, r24
    1b30:	69 81       	ldd	r22, Y+1	; 0x01
    1b32:	7a 81       	ldd	r23, Y+2	; 0x02
    1b34:	8b 81       	ldd	r24, Y+3	; 0x03
    1b36:	9c 81       	ldd	r25, Y+4	; 0x04
    1b38:	0e 94 d0 13 	call	0x27a0	; 0x27a0 <__subsf3>
    1b3c:	69 83       	std	Y+1, r22	; 0x01
    1b3e:	7a 83       	std	Y+2, r23	; 0x02
    1b40:	8b 83       	std	Y+3, r24	; 0x03
    1b42:	9c 83       	std	Y+4, r25	; 0x04
    1b44:	a3 01       	movw	r20, r6
    1b46:	92 01       	movw	r18, r4
    1b48:	6d 85       	ldd	r22, Y+13	; 0x0d
    1b4a:	7e 85       	ldd	r23, Y+14	; 0x0e
    1b4c:	8f 85       	ldd	r24, Y+15	; 0x0f
    1b4e:	98 89       	ldd	r25, Y+16	; 0x10
    1b50:	0e 94 5b 16 	call	0x2cb6	; 0x2cb6 <__mulsf3>
    1b54:	9b 01       	movw	r18, r22
    1b56:	ac 01       	movw	r20, r24
    1b58:	69 81       	ldd	r22, Y+1	; 0x01
    1b5a:	7a 81       	ldd	r23, Y+2	; 0x02
    1b5c:	8b 81       	ldd	r24, Y+3	; 0x03
    1b5e:	9c 81       	ldd	r25, Y+4	; 0x04
    1b60:	0e 94 d0 13 	call	0x27a0	; 0x27a0 <__subsf3>
    1b64:	a7 01       	movw	r20, r14
    1b66:	96 01       	movw	r18, r12
    1b68:	0e 94 d1 13 	call	0x27a2	; 0x27a2 <__addsf3>
    1b6c:	60 93 60 00 	sts	0x0060, r22	; 0x800060 <__data_start>
    1b70:	70 93 61 00 	sts	0x0061, r23	; 0x800061 <__data_start+0x1>
    1b74:	80 93 62 00 	sts	0x0062, r24	; 0x800062 <__data_start+0x2>
    1b78:	90 93 63 00 	sts	0x0063, r25	; 0x800063 <__data_start+0x3>
    1b7c:	40 90 80 00 	lds	r4, 0x0080	; 0x800080 <q3>
    1b80:	50 90 81 00 	lds	r5, 0x0081	; 0x800081 <q3+0x1>
    1b84:	60 90 82 00 	lds	r6, 0x0082	; 0x800082 <q3+0x2>
    1b88:	70 90 83 00 	lds	r7, 0x0083	; 0x800083 <q3+0x3>
    1b8c:	c0 90 88 00 	lds	r12, 0x0088	; 0x800088 <q1>
    1b90:	d0 90 89 00 	lds	r13, 0x0089	; 0x800089 <q1+0x1>
    1b94:	e0 90 8a 00 	lds	r14, 0x008A	; 0x80008a <q1+0x2>
    1b98:	f0 90 8b 00 	lds	r15, 0x008B	; 0x80008b <q1+0x3>
    1b9c:	29 89       	ldd	r18, Y+17	; 0x11
    1b9e:	3a 89       	ldd	r19, Y+18	; 0x12
    1ba0:	4b 89       	ldd	r20, Y+19	; 0x13
    1ba2:	5c 89       	ldd	r21, Y+20	; 0x14
    1ba4:	6d 81       	ldd	r22, Y+5	; 0x05
    1ba6:	7e 81       	ldd	r23, Y+6	; 0x06
    1ba8:	8f 81       	ldd	r24, Y+7	; 0x07
    1baa:	98 85       	ldd	r25, Y+8	; 0x08
    1bac:	0e 94 5b 16 	call	0x2cb6	; 0x2cb6 <__mulsf3>
    1bb0:	69 83       	std	Y+1, r22	; 0x01
    1bb2:	7a 83       	std	Y+2, r23	; 0x02
    1bb4:	8b 83       	std	Y+3, r24	; 0x03
    1bb6:	9c 83       	std	Y+4, r25	; 0x04
    1bb8:	29 8d       	ldd	r18, Y+25	; 0x19
    1bba:	3a 8d       	ldd	r19, Y+26	; 0x1a
    1bbc:	4b 8d       	ldd	r20, Y+27	; 0x1b
    1bbe:	5c 8d       	ldd	r21, Y+28	; 0x1c
    1bc0:	6d 85       	ldd	r22, Y+13	; 0x0d
    1bc2:	7e 85       	ldd	r23, Y+14	; 0x0e
    1bc4:	8f 85       	ldd	r24, Y+15	; 0x0f
    1bc6:	98 89       	ldd	r25, Y+16	; 0x10
    1bc8:	0e 94 5b 16 	call	0x2cb6	; 0x2cb6 <__mulsf3>
    1bcc:	9b 01       	movw	r18, r22
    1bce:	ac 01       	movw	r20, r24
    1bd0:	69 81       	ldd	r22, Y+1	; 0x01
    1bd2:	7a 81       	ldd	r23, Y+2	; 0x02
    1bd4:	8b 81       	ldd	r24, Y+3	; 0x03
    1bd6:	9c 81       	ldd	r25, Y+4	; 0x04
    1bd8:	0e 94 d1 13 	call	0x27a2	; 0x27a2 <__addsf3>
    1bdc:	69 83       	std	Y+1, r22	; 0x01
    1bde:	7a 83       	std	Y+2, r23	; 0x02
    1be0:	8b 83       	std	Y+3, r24	; 0x03
    1be2:	9c 83       	std	Y+4, r25	; 0x04
    1be4:	a3 01       	movw	r20, r6
    1be6:	92 01       	movw	r18, r4
    1be8:	69 85       	ldd	r22, Y+9	; 0x09
    1bea:	7a 85       	ldd	r23, Y+10	; 0x0a
    1bec:	8b 85       	ldd	r24, Y+11	; 0x0b
    1bee:	9c 85       	ldd	r25, Y+12	; 0x0c
    1bf0:	0e 94 5b 16 	call	0x2cb6	; 0x2cb6 <__mulsf3>
    1bf4:	9b 01       	movw	r18, r22
    1bf6:	ac 01       	movw	r20, r24
    1bf8:	69 81       	ldd	r22, Y+1	; 0x01
    1bfa:	7a 81       	ldd	r23, Y+2	; 0x02
    1bfc:	8b 81       	ldd	r24, Y+3	; 0x03
    1bfe:	9c 81       	ldd	r25, Y+4	; 0x04
    1c00:	0e 94 d0 13 	call	0x27a0	; 0x27a0 <__subsf3>
    1c04:	a7 01       	movw	r20, r14
    1c06:	96 01       	movw	r18, r12
    1c08:	0e 94 d1 13 	call	0x27a2	; 0x27a2 <__addsf3>
    1c0c:	60 93 88 00 	sts	0x0088, r22	; 0x800088 <q1>
    1c10:	70 93 89 00 	sts	0x0089, r23	; 0x800089 <q1+0x1>
    1c14:	80 93 8a 00 	sts	0x008A, r24	; 0x80008a <q1+0x2>
    1c18:	90 93 8b 00 	sts	0x008B, r25	; 0x80008b <q1+0x3>
    1c1c:	40 90 80 00 	lds	r4, 0x0080	; 0x800080 <q3>
    1c20:	50 90 81 00 	lds	r5, 0x0081	; 0x800081 <q3+0x1>
    1c24:	60 90 82 00 	lds	r6, 0x0082	; 0x800082 <q3+0x2>
    1c28:	70 90 83 00 	lds	r7, 0x0083	; 0x800083 <q3+0x3>
    1c2c:	c0 90 84 00 	lds	r12, 0x0084	; 0x800084 <q2>
    1c30:	d0 90 85 00 	lds	r13, 0x0085	; 0x800085 <q2+0x1>
    1c34:	e0 90 86 00 	lds	r14, 0x0086	; 0x800086 <q2+0x2>
    1c38:	f0 90 87 00 	lds	r15, 0x0087	; 0x800087 <q2+0x3>
    1c3c:	29 89       	ldd	r18, Y+17	; 0x11
    1c3e:	3a 89       	ldd	r19, Y+18	; 0x12
    1c40:	4b 89       	ldd	r20, Y+19	; 0x13
    1c42:	5c 89       	ldd	r21, Y+20	; 0x14
    1c44:	69 85       	ldd	r22, Y+9	; 0x09
    1c46:	7a 85       	ldd	r23, Y+10	; 0x0a
    1c48:	8b 85       	ldd	r24, Y+11	; 0x0b
    1c4a:	9c 85       	ldd	r25, Y+12	; 0x0c
    1c4c:	0e 94 5b 16 	call	0x2cb6	; 0x2cb6 <__mulsf3>
    1c50:	69 83       	std	Y+1, r22	; 0x01
    1c52:	7a 83       	std	Y+2, r23	; 0x02
    1c54:	8b 83       	std	Y+3, r24	; 0x03
    1c56:	9c 83       	std	Y+4, r25	; 0x04
    1c58:	a5 01       	movw	r20, r10
    1c5a:	94 01       	movw	r18, r8
    1c5c:	6d 85       	ldd	r22, Y+13	; 0x0d
    1c5e:	7e 85       	ldd	r23, Y+14	; 0x0e
    1c60:	8f 85       	ldd	r24, Y+15	; 0x0f
    1c62:	98 89       	ldd	r25, Y+16	; 0x10
    1c64:	0e 94 5b 16 	call	0x2cb6	; 0x2cb6 <__mulsf3>
    1c68:	9b 01       	movw	r18, r22
    1c6a:	ac 01       	movw	r20, r24
    1c6c:	69 81       	ldd	r22, Y+1	; 0x01
    1c6e:	7a 81       	ldd	r23, Y+2	; 0x02
    1c70:	8b 81       	ldd	r24, Y+3	; 0x03
    1c72:	9c 81       	ldd	r25, Y+4	; 0x04
    1c74:	0e 94 d0 13 	call	0x27a0	; 0x27a0 <__subsf3>
    1c78:	69 83       	std	Y+1, r22	; 0x01
    1c7a:	7a 83       	std	Y+2, r23	; 0x02
    1c7c:	8b 83       	std	Y+3, r24	; 0x03
    1c7e:	9c 83       	std	Y+4, r25	; 0x04
    1c80:	a3 01       	movw	r20, r6
    1c82:	92 01       	movw	r18, r4
    1c84:	6d 81       	ldd	r22, Y+5	; 0x05
    1c86:	7e 81       	ldd	r23, Y+6	; 0x06
    1c88:	8f 81       	ldd	r24, Y+7	; 0x07
    1c8a:	98 85       	ldd	r25, Y+8	; 0x08
    1c8c:	0e 94 5b 16 	call	0x2cb6	; 0x2cb6 <__mulsf3>
    1c90:	9b 01       	movw	r18, r22
    1c92:	ac 01       	movw	r20, r24
    1c94:	69 81       	ldd	r22, Y+1	; 0x01
    1c96:	7a 81       	ldd	r23, Y+2	; 0x02
    1c98:	8b 81       	ldd	r24, Y+3	; 0x03
    1c9a:	9c 81       	ldd	r25, Y+4	; 0x04
    1c9c:	0e 94 d1 13 	call	0x27a2	; 0x27a2 <__addsf3>
    1ca0:	a7 01       	movw	r20, r14
    1ca2:	96 01       	movw	r18, r12
    1ca4:	0e 94 d1 13 	call	0x27a2	; 0x27a2 <__addsf3>
    1ca8:	60 93 84 00 	sts	0x0084, r22	; 0x800084 <q2>
    1cac:	70 93 85 00 	sts	0x0085, r23	; 0x800085 <q2+0x1>
    1cb0:	80 93 86 00 	sts	0x0086, r24	; 0x800086 <q2+0x2>
    1cb4:	90 93 87 00 	sts	0x0087, r25	; 0x800087 <q2+0x3>
    1cb8:	c0 90 80 00 	lds	r12, 0x0080	; 0x800080 <q3>
    1cbc:	d0 90 81 00 	lds	r13, 0x0081	; 0x800081 <q3+0x1>
    1cc0:	e0 90 82 00 	lds	r14, 0x0082	; 0x800082 <q3+0x2>
    1cc4:	f0 90 83 00 	lds	r15, 0x0083	; 0x800083 <q3+0x3>
    1cc8:	29 89       	ldd	r18, Y+17	; 0x11
    1cca:	3a 89       	ldd	r19, Y+18	; 0x12
    1ccc:	4b 89       	ldd	r20, Y+19	; 0x13
    1cce:	5c 89       	ldd	r21, Y+20	; 0x14
    1cd0:	6d 85       	ldd	r22, Y+13	; 0x0d
    1cd2:	7e 85       	ldd	r23, Y+14	; 0x0e
    1cd4:	8f 85       	ldd	r24, Y+15	; 0x0f
    1cd6:	98 89       	ldd	r25, Y+16	; 0x10
    1cd8:	0e 94 5b 16 	call	0x2cb6	; 0x2cb6 <__mulsf3>
    1cdc:	2b 01       	movw	r4, r22
    1cde:	3c 01       	movw	r6, r24
    1ce0:	a5 01       	movw	r20, r10
    1ce2:	94 01       	movw	r18, r8
    1ce4:	69 85       	ldd	r22, Y+9	; 0x09
    1ce6:	7a 85       	ldd	r23, Y+10	; 0x0a
    1ce8:	8b 85       	ldd	r24, Y+11	; 0x0b
    1cea:	9c 85       	ldd	r25, Y+12	; 0x0c
    1cec:	0e 94 5b 16 	call	0x2cb6	; 0x2cb6 <__mulsf3>
    1cf0:	9b 01       	movw	r18, r22
    1cf2:	ac 01       	movw	r20, r24
    1cf4:	c3 01       	movw	r24, r6
    1cf6:	b2 01       	movw	r22, r4
    1cf8:	0e 94 d1 13 	call	0x27a2	; 0x27a2 <__addsf3>
    1cfc:	4b 01       	movw	r8, r22
    1cfe:	5c 01       	movw	r10, r24
    1d00:	29 8d       	ldd	r18, Y+25	; 0x19
    1d02:	3a 8d       	ldd	r19, Y+26	; 0x1a
    1d04:	4b 8d       	ldd	r20, Y+27	; 0x1b
    1d06:	5c 8d       	ldd	r21, Y+28	; 0x1c
    1d08:	6d 81       	ldd	r22, Y+5	; 0x05
    1d0a:	7e 81       	ldd	r23, Y+6	; 0x06
    1d0c:	8f 81       	ldd	r24, Y+7	; 0x07
    1d0e:	98 85       	ldd	r25, Y+8	; 0x08
    1d10:	0e 94 5b 16 	call	0x2cb6	; 0x2cb6 <__mulsf3>
    1d14:	9b 01       	movw	r18, r22
    1d16:	ac 01       	movw	r20, r24
    1d18:	c5 01       	movw	r24, r10
    1d1a:	b4 01       	movw	r22, r8
    1d1c:	0e 94 d0 13 	call	0x27a0	; 0x27a0 <__subsf3>
    1d20:	a7 01       	movw	r20, r14
    1d22:	96 01       	movw	r18, r12
    1d24:	0e 94 d1 13 	call	0x27a2	; 0x27a2 <__addsf3>
    1d28:	60 93 80 00 	sts	0x0080, r22	; 0x800080 <q3>
    1d2c:	70 93 81 00 	sts	0x0081, r23	; 0x800081 <q3+0x1>
    1d30:	80 93 82 00 	sts	0x0082, r24	; 0x800082 <q3+0x2>
    1d34:	90 93 83 00 	sts	0x0083, r25	; 0x800083 <q3+0x3>
    1d38:	60 91 60 00 	lds	r22, 0x0060	; 0x800060 <__data_start>
    1d3c:	70 91 61 00 	lds	r23, 0x0061	; 0x800061 <__data_start+0x1>
    1d40:	80 91 62 00 	lds	r24, 0x0062	; 0x800062 <__data_start+0x2>
    1d44:	90 91 63 00 	lds	r25, 0x0063	; 0x800063 <__data_start+0x3>
    1d48:	20 91 60 00 	lds	r18, 0x0060	; 0x800060 <__data_start>
    1d4c:	30 91 61 00 	lds	r19, 0x0061	; 0x800061 <__data_start+0x1>
    1d50:	40 91 62 00 	lds	r20, 0x0062	; 0x800062 <__data_start+0x2>
    1d54:	50 91 63 00 	lds	r21, 0x0063	; 0x800063 <__data_start+0x3>
    1d58:	80 90 88 00 	lds	r8, 0x0088	; 0x800088 <q1>
    1d5c:	90 90 89 00 	lds	r9, 0x0089	; 0x800089 <q1+0x1>
    1d60:	a0 90 8a 00 	lds	r10, 0x008A	; 0x80008a <q1+0x2>
    1d64:	b0 90 8b 00 	lds	r11, 0x008B	; 0x80008b <q1+0x3>
    1d68:	40 90 88 00 	lds	r4, 0x0088	; 0x800088 <q1>
    1d6c:	50 90 89 00 	lds	r5, 0x0089	; 0x800089 <q1+0x1>
    1d70:	60 90 8a 00 	lds	r6, 0x008A	; 0x80008a <q1+0x2>
    1d74:	70 90 8b 00 	lds	r7, 0x008B	; 0x80008b <q1+0x3>
    1d78:	e0 90 84 00 	lds	r14, 0x0084	; 0x800084 <q2>
    1d7c:	f0 90 85 00 	lds	r15, 0x0085	; 0x800085 <q2+0x1>
    1d80:	00 91 86 00 	lds	r16, 0x0086	; 0x800086 <q2+0x2>
    1d84:	10 91 87 00 	lds	r17, 0x0087	; 0x800087 <q2+0x3>
    1d88:	ed 82       	std	Y+5, r14	; 0x05
    1d8a:	fe 82       	std	Y+6, r15	; 0x06
    1d8c:	0f 83       	std	Y+7, r16	; 0x07
    1d8e:	18 87       	std	Y+8, r17	; 0x08
    1d90:	e0 90 84 00 	lds	r14, 0x0084	; 0x800084 <q2>
    1d94:	f0 90 85 00 	lds	r15, 0x0085	; 0x800085 <q2+0x1>
    1d98:	00 91 86 00 	lds	r16, 0x0086	; 0x800086 <q2+0x2>
    1d9c:	10 91 87 00 	lds	r17, 0x0087	; 0x800087 <q2+0x3>
    1da0:	e9 86       	std	Y+9, r14	; 0x09
    1da2:	fa 86       	std	Y+10, r15	; 0x0a
    1da4:	0b 87       	std	Y+11, r16	; 0x0b
    1da6:	1c 87       	std	Y+12, r17	; 0x0c
    1da8:	e0 90 80 00 	lds	r14, 0x0080	; 0x800080 <q3>
    1dac:	f0 90 81 00 	lds	r15, 0x0081	; 0x800081 <q3+0x1>
    1db0:	00 91 82 00 	lds	r16, 0x0082	; 0x800082 <q3+0x2>
    1db4:	10 91 83 00 	lds	r17, 0x0083	; 0x800083 <q3+0x3>
    1db8:	e9 82       	std	Y+1, r14	; 0x01
    1dba:	fa 82       	std	Y+2, r15	; 0x02
    1dbc:	0b 83       	std	Y+3, r16	; 0x03
    1dbe:	1c 83       	std	Y+4, r17	; 0x04
    1dc0:	e0 90 80 00 	lds	r14, 0x0080	; 0x800080 <q3>
    1dc4:	f0 90 81 00 	lds	r15, 0x0081	; 0x800081 <q3+0x1>
    1dc8:	00 91 82 00 	lds	r16, 0x0082	; 0x800082 <q3+0x2>
    1dcc:	10 91 83 00 	lds	r17, 0x0083	; 0x800083 <q3+0x3>
    1dd0:	ed 86       	std	Y+13, r14	; 0x0d
    1dd2:	fe 86       	std	Y+14, r15	; 0x0e
    1dd4:	0f 87       	std	Y+15, r16	; 0x0f
    1dd6:	18 8b       	std	Y+16, r17	; 0x10
    1dd8:	0e 94 5b 16 	call	0x2cb6	; 0x2cb6 <__mulsf3>
    1ddc:	6b 01       	movw	r12, r22
    1dde:	7c 01       	movw	r14, r24
    1de0:	a3 01       	movw	r20, r6
    1de2:	92 01       	movw	r18, r4
    1de4:	c5 01       	movw	r24, r10
    1de6:	b4 01       	movw	r22, r8
    1de8:	0e 94 5b 16 	call	0x2cb6	; 0x2cb6 <__mulsf3>
    1dec:	9b 01       	movw	r18, r22
    1dee:	ac 01       	movw	r20, r24
    1df0:	c7 01       	movw	r24, r14
    1df2:	b6 01       	movw	r22, r12
    1df4:	0e 94 d1 13 	call	0x27a2	; 0x27a2 <__addsf3>
    1df8:	4b 01       	movw	r8, r22
    1dfa:	5c 01       	movw	r10, r24
    1dfc:	29 85       	ldd	r18, Y+9	; 0x09
    1dfe:	3a 85       	ldd	r19, Y+10	; 0x0a
    1e00:	4b 85       	ldd	r20, Y+11	; 0x0b
    1e02:	5c 85       	ldd	r21, Y+12	; 0x0c
    1e04:	6d 81       	ldd	r22, Y+5	; 0x05
    1e06:	7e 81       	ldd	r23, Y+6	; 0x06
    1e08:	8f 81       	ldd	r24, Y+7	; 0x07
    1e0a:	98 85       	ldd	r25, Y+8	; 0x08
    1e0c:	0e 94 5b 16 	call	0x2cb6	; 0x2cb6 <__mulsf3>
    1e10:	9b 01       	movw	r18, r22
    1e12:	ac 01       	movw	r20, r24
    1e14:	c5 01       	movw	r24, r10
    1e16:	b4 01       	movw	r22, r8
    1e18:	0e 94 d1 13 	call	0x27a2	; 0x27a2 <__addsf3>
    1e1c:	4b 01       	movw	r8, r22
    1e1e:	5c 01       	movw	r10, r24
    1e20:	2d 85       	ldd	r18, Y+13	; 0x0d
    1e22:	3e 85       	ldd	r19, Y+14	; 0x0e
    1e24:	4f 85       	ldd	r20, Y+15	; 0x0f
    1e26:	58 89       	ldd	r21, Y+16	; 0x10
    1e28:	69 81       	ldd	r22, Y+1	; 0x01
    1e2a:	7a 81       	ldd	r23, Y+2	; 0x02
    1e2c:	8b 81       	ldd	r24, Y+3	; 0x03
    1e2e:	9c 81       	ldd	r25, Y+4	; 0x04
    1e30:	0e 94 5b 16 	call	0x2cb6	; 0x2cb6 <__mulsf3>
    1e34:	9b 01       	movw	r18, r22
    1e36:	ac 01       	movw	r20, r24
    1e38:	c5 01       	movw	r24, r10
    1e3a:	b4 01       	movw	r22, r8
    1e3c:	0e 94 d1 13 	call	0x27a2	; 0x27a2 <__addsf3>
    1e40:	0e 94 34 02 	call	0x468	; 0x468 <invSqrt>
    1e44:	6b 01       	movw	r12, r22
    1e46:	7c 01       	movw	r14, r24
    1e48:	20 91 60 00 	lds	r18, 0x0060	; 0x800060 <__data_start>
    1e4c:	30 91 61 00 	lds	r19, 0x0061	; 0x800061 <__data_start+0x1>
    1e50:	40 91 62 00 	lds	r20, 0x0062	; 0x800062 <__data_start+0x2>
    1e54:	50 91 63 00 	lds	r21, 0x0063	; 0x800063 <__data_start+0x3>
    1e58:	0e 94 5b 16 	call	0x2cb6	; 0x2cb6 <__mulsf3>
    1e5c:	60 93 60 00 	sts	0x0060, r22	; 0x800060 <__data_start>
    1e60:	70 93 61 00 	sts	0x0061, r23	; 0x800061 <__data_start+0x1>
    1e64:	80 93 62 00 	sts	0x0062, r24	; 0x800062 <__data_start+0x2>
    1e68:	90 93 63 00 	sts	0x0063, r25	; 0x800063 <__data_start+0x3>
    1e6c:	20 91 88 00 	lds	r18, 0x0088	; 0x800088 <q1>
    1e70:	30 91 89 00 	lds	r19, 0x0089	; 0x800089 <q1+0x1>
    1e74:	40 91 8a 00 	lds	r20, 0x008A	; 0x80008a <q1+0x2>
    1e78:	50 91 8b 00 	lds	r21, 0x008B	; 0x80008b <q1+0x3>
    1e7c:	c7 01       	movw	r24, r14
    1e7e:	b6 01       	movw	r22, r12
    1e80:	0e 94 5b 16 	call	0x2cb6	; 0x2cb6 <__mulsf3>
    1e84:	60 93 88 00 	sts	0x0088, r22	; 0x800088 <q1>
    1e88:	70 93 89 00 	sts	0x0089, r23	; 0x800089 <q1+0x1>
    1e8c:	80 93 8a 00 	sts	0x008A, r24	; 0x80008a <q1+0x2>
    1e90:	90 93 8b 00 	sts	0x008B, r25	; 0x80008b <q1+0x3>
    1e94:	20 91 84 00 	lds	r18, 0x0084	; 0x800084 <q2>
    1e98:	30 91 85 00 	lds	r19, 0x0085	; 0x800085 <q2+0x1>
    1e9c:	40 91 86 00 	lds	r20, 0x0086	; 0x800086 <q2+0x2>
    1ea0:	50 91 87 00 	lds	r21, 0x0087	; 0x800087 <q2+0x3>
    1ea4:	c7 01       	movw	r24, r14
    1ea6:	b6 01       	movw	r22, r12
    1ea8:	0e 94 5b 16 	call	0x2cb6	; 0x2cb6 <__mulsf3>
    1eac:	60 93 84 00 	sts	0x0084, r22	; 0x800084 <q2>
    1eb0:	70 93 85 00 	sts	0x0085, r23	; 0x800085 <q2+0x1>
    1eb4:	80 93 86 00 	sts	0x0086, r24	; 0x800086 <q2+0x2>
    1eb8:	90 93 87 00 	sts	0x0087, r25	; 0x800087 <q2+0x3>
    1ebc:	20 91 80 00 	lds	r18, 0x0080	; 0x800080 <q3>
    1ec0:	30 91 81 00 	lds	r19, 0x0081	; 0x800081 <q3+0x1>
    1ec4:	40 91 82 00 	lds	r20, 0x0082	; 0x800082 <q3+0x2>
    1ec8:	50 91 83 00 	lds	r21, 0x0083	; 0x800083 <q3+0x3>
    1ecc:	c7 01       	movw	r24, r14
    1ece:	b6 01       	movw	r22, r12
    1ed0:	0e 94 5b 16 	call	0x2cb6	; 0x2cb6 <__mulsf3>
    1ed4:	60 93 80 00 	sts	0x0080, r22	; 0x800080 <q3>
    1ed8:	70 93 81 00 	sts	0x0081, r23	; 0x800081 <q3+0x1>
    1edc:	80 93 82 00 	sts	0x0082, r24	; 0x800082 <q3+0x2>
    1ee0:	90 93 83 00 	sts	0x0083, r25	; 0x800083 <q3+0x3>
    1ee4:	c8 5a       	subi	r28, 0xA8	; 168
    1ee6:	df 4f       	sbci	r29, 0xFF	; 255
    1ee8:	0f b6       	in	r0, 0x3f	; 63
    1eea:	f8 94       	cli
    1eec:	de bf       	out	0x3e, r29	; 62
    1eee:	0f be       	out	0x3f, r0	; 63
    1ef0:	cd bf       	out	0x3d, r28	; 61
    1ef2:	df 91       	pop	r29
    1ef4:	cf 91       	pop	r28
    1ef6:	1f 91       	pop	r17
    1ef8:	0f 91       	pop	r16
    1efa:	ff 90       	pop	r15
    1efc:	ef 90       	pop	r14
    1efe:	df 90       	pop	r13
    1f00:	cf 90       	pop	r12
    1f02:	bf 90       	pop	r11
    1f04:	af 90       	pop	r10
    1f06:	9f 90       	pop	r9
    1f08:	8f 90       	pop	r8
    1f0a:	7f 90       	pop	r7
    1f0c:	6f 90       	pop	r6
    1f0e:	5f 90       	pop	r5
    1f10:	4f 90       	pop	r4
    1f12:	3f 90       	pop	r3
    1f14:	2f 90       	pop	r2
    1f16:	08 95       	ret

00001f18 <mpu6050_updateQuaternion>:
    1f18:	4f 92       	push	r4
    1f1a:	5f 92       	push	r5
    1f1c:	6f 92       	push	r6
    1f1e:	7f 92       	push	r7
    1f20:	8f 92       	push	r8
    1f22:	9f 92       	push	r9
    1f24:	af 92       	push	r10
    1f26:	bf 92       	push	r11
    1f28:	cf 92       	push	r12
    1f2a:	df 92       	push	r13
    1f2c:	ef 92       	push	r14
    1f2e:	ff 92       	push	r15
    1f30:	0f 93       	push	r16
    1f32:	1f 93       	push	r17
    1f34:	cf 93       	push	r28
    1f36:	df 93       	push	r29
    1f38:	cd b7       	in	r28, 0x3d	; 61
    1f3a:	de b7       	in	r29, 0x3e	; 62
    1f3c:	2e 97       	sbiw	r28, 0x0e	; 14
    1f3e:	0f b6       	in	r0, 0x3f	; 63
    1f40:	f8 94       	cli
    1f42:	de bf       	out	0x3e, r29	; 62
    1f44:	0f be       	out	0x3f, r0	; 63
    1f46:	cd bf       	out	0x3d, r28	; 61
    1f48:	1a 82       	std	Y+2, r1	; 0x02
    1f4a:	19 82       	std	Y+1, r1	; 0x01
    1f4c:	1c 82       	std	Y+4, r1	; 0x04
    1f4e:	1b 82       	std	Y+3, r1	; 0x03
    1f50:	1e 82       	std	Y+6, r1	; 0x06
    1f52:	1d 82       	std	Y+5, r1	; 0x05
    1f54:	40 e9       	ldi	r20, 0x90	; 144
    1f56:	50 e0       	ldi	r21, 0x00	; 0
    1f58:	60 e0       	ldi	r22, 0x00	; 0
    1f5a:	8a e3       	ldi	r24, 0x3A	; 58
    1f5c:	0e 94 0d 01 	call	0x21a	; 0x21a <mpu6050_readBit>
    1f60:	80 91 90 00 	lds	r24, 0x0090	; 0x800090 <buffer>
    1f64:	81 11       	cpse	r24, r1
    1f66:	05 c0       	rjmp	.+10     	; 0x1f72 <mpu6050_updateQuaternion+0x5a>
    1f68:	83 e0       	ldi	r24, 0x03	; 3
    1f6a:	8a 95       	dec	r24
    1f6c:	f1 f7       	brne	.-4      	; 0x1f6a <mpu6050_updateQuaternion+0x52>
    1f6e:	00 00       	nop
    1f70:	f1 cf       	rjmp	.-30     	; 0x1f54 <mpu6050_updateQuaternion+0x3c>
    1f72:	40 e9       	ldi	r20, 0x90	; 144
    1f74:	50 e0       	ldi	r21, 0x00	; 0
    1f76:	6e e0       	ldi	r22, 0x0E	; 14
    1f78:	8b e3       	ldi	r24, 0x3B	; 59
    1f7a:	0e 94 81 00 	call	0x102	; 0x102 <mpu6050_readBytes>
    1f7e:	e0 e9       	ldi	r30, 0x90	; 144
    1f80:	f0 e0       	ldi	r31, 0x00	; 0
    1f82:	80 81       	ld	r24, Z
    1f84:	c1 80       	ldd	r12, Z+1	; 0x01
    1f86:	d1 2c       	mov	r13, r1
    1f88:	d8 2a       	or	r13, r24
    1f8a:	82 81       	ldd	r24, Z+2	; 0x02
    1f8c:	83 80       	ldd	r8, Z+3	; 0x03
    1f8e:	91 2c       	mov	r9, r1
    1f90:	98 2a       	or	r9, r24
    1f92:	84 81       	ldd	r24, Z+4	; 0x04
    1f94:	e5 80       	ldd	r14, Z+5	; 0x05
    1f96:	f1 2c       	mov	r15, r1
    1f98:	f8 2a       	or	r15, r24
    1f9a:	80 85       	ldd	r24, Z+8	; 0x08
    1f9c:	41 84       	ldd	r4, Z+9	; 0x09
    1f9e:	51 2c       	mov	r5, r1
    1fa0:	58 2a       	or	r5, r24
    1fa2:	82 85       	ldd	r24, Z+10	; 0x0a
    1fa4:	63 84       	ldd	r6, Z+11	; 0x0b
    1fa6:	71 2c       	mov	r7, r1
    1fa8:	78 2a       	or	r7, r24
    1faa:	84 85       	ldd	r24, Z+12	; 0x0c
    1fac:	05 85       	ldd	r16, Z+13	; 0x0d
    1fae:	10 e0       	ldi	r17, 0x00	; 0
    1fb0:	18 2b       	or	r17, r24
    1fb2:	ae 01       	movw	r20, r28
    1fb4:	4b 5f       	subi	r20, 0xFB	; 251
    1fb6:	5f 4f       	sbci	r21, 0xFF	; 255
    1fb8:	be 01       	movw	r22, r28
    1fba:	6d 5f       	subi	r22, 0xFD	; 253
    1fbc:	7f 4f       	sbci	r23, 0xFF	; 255
    1fbe:	ce 01       	movw	r24, r28
    1fc0:	01 96       	adiw	r24, 0x01	; 1
    1fc2:	0e 94 18 02 	call	0x430	; 0x430 <compass_getData>
    1fc6:	b6 01       	movw	r22, r12
    1fc8:	dd 0c       	add	r13, r13
    1fca:	88 0b       	sbc	r24, r24
    1fcc:	99 0b       	sbc	r25, r25
    1fce:	0e 94 43 15 	call	0x2a86	; 0x2a86 <__floatsisf>
    1fd2:	20 e0       	ldi	r18, 0x00	; 0
    1fd4:	30 e0       	ldi	r19, 0x00	; 0
    1fd6:	40 e8       	ldi	r20, 0x80	; 128
    1fd8:	58 e3       	ldi	r21, 0x38	; 56
    1fda:	0e 94 5b 16 	call	0x2cb6	; 0x2cb6 <__mulsf3>
    1fde:	5b 01       	movw	r10, r22
    1fe0:	6c 01       	movw	r12, r24
    1fe2:	b8 01       	movw	r22, r16
    1fe4:	66 5e       	subi	r22, 0xE6	; 230
    1fe6:	7f 4f       	sbci	r23, 0xFF	; 255
    1fe8:	07 2e       	mov	r0, r23
    1fea:	00 0c       	add	r0, r0
    1fec:	88 0b       	sbc	r24, r24
    1fee:	99 0b       	sbc	r25, r25
    1ff0:	0e 94 43 15 	call	0x2a86	; 0x2a86 <__floatsisf>
    1ff4:	23 e3       	ldi	r18, 0x33	; 51
    1ff6:	33 e3       	ldi	r19, 0x33	; 51
    1ff8:	43 e8       	ldi	r20, 0x83	; 131
    1ffa:	51 e4       	ldi	r21, 0x41	; 65
    1ffc:	0e 94 cf 14 	call	0x299e	; 0x299e <__divsf3>
    2000:	24 e3       	ldi	r18, 0x34	; 52
    2002:	3a ef       	ldi	r19, 0xFA	; 250
    2004:	4e e8       	ldi	r20, 0x8E	; 142
    2006:	5c e3       	ldi	r21, 0x3C	; 60
    2008:	0e 94 5b 16 	call	0x2cb6	; 0x2cb6 <__mulsf3>
    200c:	6f 83       	std	Y+7, r22	; 0x07
    200e:	78 87       	std	Y+8, r23	; 0x08
    2010:	89 87       	std	Y+9, r24	; 0x09
    2012:	9a 87       	std	Y+10, r25	; 0x0a
    2014:	b3 01       	movw	r22, r6
    2016:	60 5e       	subi	r22, 0xE0	; 224
    2018:	7f 4f       	sbci	r23, 0xFF	; 255
    201a:	07 2e       	mov	r0, r23
    201c:	00 0c       	add	r0, r0
    201e:	88 0b       	sbc	r24, r24
    2020:	99 0b       	sbc	r25, r25
    2022:	0e 94 43 15 	call	0x2a86	; 0x2a86 <__floatsisf>
    2026:	23 e3       	ldi	r18, 0x33	; 51
    2028:	33 e3       	ldi	r19, 0x33	; 51
    202a:	43 e8       	ldi	r20, 0x83	; 131
    202c:	51 e4       	ldi	r21, 0x41	; 65
    202e:	0e 94 cf 14 	call	0x299e	; 0x299e <__divsf3>
    2032:	24 e3       	ldi	r18, 0x34	; 52
    2034:	3a ef       	ldi	r19, 0xFA	; 250
    2036:	4e e8       	ldi	r20, 0x8E	; 142
    2038:	5c e3       	ldi	r21, 0x3C	; 60
    203a:	0e 94 5b 16 	call	0x2cb6	; 0x2cb6 <__mulsf3>
    203e:	6b 87       	std	Y+11, r22	; 0x0b
    2040:	7c 87       	std	Y+12, r23	; 0x0c
    2042:	8d 87       	std	Y+13, r24	; 0x0d
    2044:	9e 87       	std	Y+14, r25	; 0x0e
    2046:	b2 01       	movw	r22, r4
    2048:	66 59       	subi	r22, 0x96	; 150
    204a:	7f 4f       	sbci	r23, 0xFF	; 255
    204c:	07 2e       	mov	r0, r23
    204e:	00 0c       	add	r0, r0
    2050:	88 0b       	sbc	r24, r24
    2052:	99 0b       	sbc	r25, r25
    2054:	0e 94 43 15 	call	0x2a86	; 0x2a86 <__floatsisf>
    2058:	23 e3       	ldi	r18, 0x33	; 51
    205a:	33 e3       	ldi	r19, 0x33	; 51
    205c:	43 e8       	ldi	r20, 0x83	; 131
    205e:	51 e4       	ldi	r21, 0x41	; 65
    2060:	0e 94 cf 14 	call	0x299e	; 0x299e <__divsf3>
    2064:	24 e3       	ldi	r18, 0x34	; 52
    2066:	3a ef       	ldi	r19, 0xFA	; 250
    2068:	4e e8       	ldi	r20, 0x8E	; 142
    206a:	5c e3       	ldi	r21, 0x3C	; 60
    206c:	0e 94 5b 16 	call	0x2cb6	; 0x2cb6 <__mulsf3>
    2070:	2b 01       	movw	r4, r22
    2072:	3c 01       	movw	r6, r24
    2074:	6d 81       	ldd	r22, Y+5	; 0x05
    2076:	7e 81       	ldd	r23, Y+6	; 0x06
    2078:	07 2e       	mov	r0, r23
    207a:	00 0c       	add	r0, r0
    207c:	88 0b       	sbc	r24, r24
    207e:	99 0b       	sbc	r25, r25
    2080:	0e 94 43 15 	call	0x2a86	; 0x2a86 <__floatsisf>
    2084:	20 e0       	ldi	r18, 0x00	; 0
    2086:	30 e4       	ldi	r19, 0x40	; 64
    2088:	4b ea       	ldi	r20, 0xAB	; 171
    208a:	54 e4       	ldi	r21, 0x44	; 68
    208c:	0e 94 cf 14 	call	0x299e	; 0x299e <__divsf3>
    2090:	9f 93       	push	r25
    2092:	8f 93       	push	r24
    2094:	7f 93       	push	r23
    2096:	6f 93       	push	r22
    2098:	6b 81       	ldd	r22, Y+3	; 0x03
    209a:	7c 81       	ldd	r23, Y+4	; 0x04
    209c:	07 2e       	mov	r0, r23
    209e:	00 0c       	add	r0, r0
    20a0:	88 0b       	sbc	r24, r24
    20a2:	99 0b       	sbc	r25, r25
    20a4:	0e 94 43 15 	call	0x2a86	; 0x2a86 <__floatsisf>
    20a8:	20 e0       	ldi	r18, 0x00	; 0
    20aa:	30 e4       	ldi	r19, 0x40	; 64
    20ac:	4b ea       	ldi	r20, 0xAB	; 171
    20ae:	54 e4       	ldi	r21, 0x44	; 68
    20b0:	0e 94 cf 14 	call	0x299e	; 0x299e <__divsf3>
    20b4:	9f 93       	push	r25
    20b6:	8f 93       	push	r24
    20b8:	7f 93       	push	r23
    20ba:	6f 93       	push	r22
    20bc:	69 81       	ldd	r22, Y+1	; 0x01
    20be:	7a 81       	ldd	r23, Y+2	; 0x02
    20c0:	07 2e       	mov	r0, r23
    20c2:	00 0c       	add	r0, r0
    20c4:	88 0b       	sbc	r24, r24
    20c6:	99 0b       	sbc	r25, r25
    20c8:	0e 94 43 15 	call	0x2a86	; 0x2a86 <__floatsisf>
    20cc:	20 e0       	ldi	r18, 0x00	; 0
    20ce:	30 e4       	ldi	r19, 0x40	; 64
    20d0:	4b ea       	ldi	r20, 0xAB	; 171
    20d2:	54 e4       	ldi	r21, 0x44	; 68
    20d4:	0e 94 cf 14 	call	0x299e	; 0x299e <__divsf3>
    20d8:	9f 93       	push	r25
    20da:	8f 93       	push	r24
    20dc:	7f 93       	push	r23
    20de:	6f 93       	push	r22
    20e0:	b7 01       	movw	r22, r14
    20e2:	ff 0c       	add	r15, r15
    20e4:	88 0b       	sbc	r24, r24
    20e6:	99 0b       	sbc	r25, r25
    20e8:	0e 94 43 15 	call	0x2a86	; 0x2a86 <__floatsisf>
    20ec:	20 e0       	ldi	r18, 0x00	; 0
    20ee:	30 e0       	ldi	r19, 0x00	; 0
    20f0:	40 e8       	ldi	r20, 0x80	; 128
    20f2:	58 e3       	ldi	r21, 0x38	; 56
    20f4:	0e 94 5b 16 	call	0x2cb6	; 0x2cb6 <__mulsf3>
    20f8:	9f 93       	push	r25
    20fa:	8f 93       	push	r24
    20fc:	7f 93       	push	r23
    20fe:	6f 93       	push	r22
    2100:	b4 01       	movw	r22, r8
    2102:	99 0c       	add	r9, r9
    2104:	88 0b       	sbc	r24, r24
    2106:	99 0b       	sbc	r25, r25
    2108:	0e 94 43 15 	call	0x2a86	; 0x2a86 <__floatsisf>
    210c:	20 e0       	ldi	r18, 0x00	; 0
    210e:	30 e0       	ldi	r19, 0x00	; 0
    2110:	40 e8       	ldi	r20, 0x80	; 128
    2112:	58 e3       	ldi	r21, 0x38	; 56
    2114:	0e 94 5b 16 	call	0x2cb6	; 0x2cb6 <__mulsf3>
    2118:	9f 93       	push	r25
    211a:	8f 93       	push	r24
    211c:	7f 93       	push	r23
    211e:	6f 93       	push	r22
    2120:	ef 80       	ldd	r14, Y+7	; 0x07
    2122:	f8 84       	ldd	r15, Y+8	; 0x08
    2124:	09 85       	ldd	r16, Y+9	; 0x09
    2126:	1a 85       	ldd	r17, Y+10	; 0x0a
    2128:	2b 85       	ldd	r18, Y+11	; 0x0b
    212a:	3c 85       	ldd	r19, Y+12	; 0x0c
    212c:	4d 85       	ldd	r20, Y+13	; 0x0d
    212e:	5e 85       	ldd	r21, Y+14	; 0x0e
    2130:	c3 01       	movw	r24, r6
    2132:	b2 01       	movw	r22, r4
    2134:	0e 94 48 07 	call	0xe90	; 0xe90 <MahonyAHRSupdate>
    2138:	0f b6       	in	r0, 0x3f	; 63
    213a:	f8 94       	cli
    213c:	de bf       	out	0x3e, r29	; 62
    213e:	0f be       	out	0x3f, r0	; 63
    2140:	cd bf       	out	0x3d, r28	; 61
    2142:	2e 96       	adiw	r28, 0x0e	; 14
    2144:	0f b6       	in	r0, 0x3f	; 63
    2146:	f8 94       	cli
    2148:	de bf       	out	0x3e, r29	; 62
    214a:	0f be       	out	0x3f, r0	; 63
    214c:	cd bf       	out	0x3d, r28	; 61
    214e:	df 91       	pop	r29
    2150:	cf 91       	pop	r28
    2152:	1f 91       	pop	r17
    2154:	0f 91       	pop	r16
    2156:	ff 90       	pop	r15
    2158:	ef 90       	pop	r14
    215a:	df 90       	pop	r13
    215c:	cf 90       	pop	r12
    215e:	bf 90       	pop	r11
    2160:	af 90       	pop	r10
    2162:	9f 90       	pop	r9
    2164:	8f 90       	pop	r8
    2166:	7f 90       	pop	r7
    2168:	6f 90       	pop	r6
    216a:	5f 90       	pop	r5
    216c:	4f 90       	pop	r4
    216e:	08 95       	ret

00002170 <mpu6050_getRollPitchYaw>:
 * aerospace sequence, to obtain sensor attitude:
 * 1. rotate around sensor Z plane by yaw
 * 2. rotate around sensor Y plane by pitch
 * 3. rotate around sensor X plane by roll
 */
void mpu6050_getRollPitchYaw(double *roll1, double *pitch1, double *yaw1) {
    2170:	2f 92       	push	r2
    2172:	3f 92       	push	r3
    2174:	4f 92       	push	r4
    2176:	5f 92       	push	r5
    2178:	6f 92       	push	r6
    217a:	7f 92       	push	r7
    217c:	8f 92       	push	r8
    217e:	9f 92       	push	r9
    2180:	af 92       	push	r10
    2182:	bf 92       	push	r11
    2184:	cf 92       	push	r12
    2186:	df 92       	push	r13
    2188:	ef 92       	push	r14
    218a:	ff 92       	push	r15
    218c:	0f 93       	push	r16
    218e:	1f 93       	push	r17
    2190:	cf 93       	push	r28
    2192:	df 93       	push	r29
    2194:	cd b7       	in	r28, 0x3d	; 61
    2196:	de b7       	in	r29, 0x3e	; 62
    2198:	62 97       	sbiw	r28, 0x12	; 18
    219a:	0f b6       	in	r0, 0x3f	; 63
    219c:	f8 94       	cli
    219e:	de bf       	out	0x3e, r29	; 62
    21a0:	0f be       	out	0x3f, r0	; 63
    21a2:	cd bf       	out	0x3d, r28	; 61
    21a4:	1c 01       	movw	r2, r24
    21a6:	8b 01       	movw	r16, r22
    21a8:	5a 8b       	std	Y+18, r21	; 0x12
    21aa:	49 8b       	std	Y+17, r20	; 0x11
	*yaw1 = atan2(2*q1*q2 - 2*q0*q3, 2*q0*q0 + 2*q1*q1 - 1);
    21ac:	60 91 60 00 	lds	r22, 0x0060	; 0x800060 <__data_start>
    21b0:	70 91 61 00 	lds	r23, 0x0061	; 0x800061 <__data_start+0x1>
    21b4:	80 91 62 00 	lds	r24, 0x0062	; 0x800062 <__data_start+0x2>
    21b8:	90 91 63 00 	lds	r25, 0x0063	; 0x800063 <__data_start+0x3>
    21bc:	80 90 60 00 	lds	r8, 0x0060	; 0x800060 <__data_start>
    21c0:	90 90 61 00 	lds	r9, 0x0061	; 0x800061 <__data_start+0x1>
    21c4:	a0 90 62 00 	lds	r10, 0x0062	; 0x800062 <__data_start+0x2>
    21c8:	b0 90 63 00 	lds	r11, 0x0063	; 0x800063 <__data_start+0x3>
    21cc:	c0 90 88 00 	lds	r12, 0x0088	; 0x800088 <q1>
    21d0:	d0 90 89 00 	lds	r13, 0x0089	; 0x800089 <q1+0x1>
    21d4:	e0 90 8a 00 	lds	r14, 0x008A	; 0x80008a <q1+0x2>
    21d8:	f0 90 8b 00 	lds	r15, 0x008B	; 0x80008b <q1+0x3>
    21dc:	20 91 88 00 	lds	r18, 0x0088	; 0x800088 <q1>
    21e0:	30 91 89 00 	lds	r19, 0x0089	; 0x800089 <q1+0x1>
    21e4:	40 91 8a 00 	lds	r20, 0x008A	; 0x80008a <q1+0x2>
    21e8:	50 91 8b 00 	lds	r21, 0x008B	; 0x80008b <q1+0x3>
    21ec:	2d 83       	std	Y+5, r18	; 0x05
    21ee:	3e 83       	std	Y+6, r19	; 0x06
    21f0:	4f 83       	std	Y+7, r20	; 0x07
    21f2:	58 87       	std	Y+8, r21	; 0x08
    21f4:	20 91 88 00 	lds	r18, 0x0088	; 0x800088 <q1>
    21f8:	30 91 89 00 	lds	r19, 0x0089	; 0x800089 <q1+0x1>
    21fc:	40 91 8a 00 	lds	r20, 0x008A	; 0x80008a <q1+0x2>
    2200:	50 91 8b 00 	lds	r21, 0x008B	; 0x80008b <q1+0x3>
    2204:	29 83       	std	Y+1, r18	; 0x01
    2206:	3a 83       	std	Y+2, r19	; 0x02
    2208:	4b 83       	std	Y+3, r20	; 0x03
    220a:	5c 83       	std	Y+4, r21	; 0x04
    220c:	20 91 84 00 	lds	r18, 0x0084	; 0x800084 <q2>
    2210:	30 91 85 00 	lds	r19, 0x0085	; 0x800085 <q2+0x1>
    2214:	40 91 86 00 	lds	r20, 0x0086	; 0x800086 <q2+0x2>
    2218:	50 91 87 00 	lds	r21, 0x0087	; 0x800087 <q2+0x3>
    221c:	29 87       	std	Y+9, r18	; 0x09
    221e:	3a 87       	std	Y+10, r19	; 0x0a
    2220:	4b 87       	std	Y+11, r20	; 0x0b
    2222:	5c 87       	std	Y+12, r21	; 0x0c
    2224:	40 90 60 00 	lds	r4, 0x0060	; 0x800060 <__data_start>
    2228:	50 90 61 00 	lds	r5, 0x0061	; 0x800061 <__data_start+0x1>
    222c:	60 90 62 00 	lds	r6, 0x0062	; 0x800062 <__data_start+0x2>
    2230:	70 90 63 00 	lds	r7, 0x0063	; 0x800063 <__data_start+0x3>
    2234:	20 91 80 00 	lds	r18, 0x0080	; 0x800080 <q3>
    2238:	30 91 81 00 	lds	r19, 0x0081	; 0x800081 <q3+0x1>
    223c:	40 91 82 00 	lds	r20, 0x0082	; 0x800082 <q3+0x2>
    2240:	50 91 83 00 	lds	r21, 0x0083	; 0x800083 <q3+0x3>
    2244:	2d 87       	std	Y+13, r18	; 0x0d
    2246:	3e 87       	std	Y+14, r19	; 0x0e
    2248:	4f 87       	std	Y+15, r20	; 0x0f
    224a:	58 8b       	std	Y+16, r21	; 0x10
    224c:	9b 01       	movw	r18, r22
    224e:	ac 01       	movw	r20, r24
    2250:	0e 94 d1 13 	call	0x27a2	; 0x27a2 <__addsf3>
    2254:	a5 01       	movw	r20, r10
    2256:	94 01       	movw	r18, r8
    2258:	0e 94 5b 16 	call	0x2cb6	; 0x2cb6 <__mulsf3>
    225c:	4b 01       	movw	r8, r22
    225e:	5c 01       	movw	r10, r24
    2260:	a7 01       	movw	r20, r14
    2262:	96 01       	movw	r18, r12
    2264:	c7 01       	movw	r24, r14
    2266:	b6 01       	movw	r22, r12
    2268:	0e 94 d1 13 	call	0x27a2	; 0x27a2 <__addsf3>
    226c:	2d 81       	ldd	r18, Y+5	; 0x05
    226e:	3e 81       	ldd	r19, Y+6	; 0x06
    2270:	4f 81       	ldd	r20, Y+7	; 0x07
    2272:	58 85       	ldd	r21, Y+8	; 0x08
    2274:	0e 94 5b 16 	call	0x2cb6	; 0x2cb6 <__mulsf3>
    2278:	9b 01       	movw	r18, r22
    227a:	ac 01       	movw	r20, r24
    227c:	c5 01       	movw	r24, r10
    227e:	b4 01       	movw	r22, r8
    2280:	0e 94 d1 13 	call	0x27a2	; 0x27a2 <__addsf3>
    2284:	20 e0       	ldi	r18, 0x00	; 0
    2286:	30 e0       	ldi	r19, 0x00	; 0
    2288:	40 e8       	ldi	r20, 0x80	; 128
    228a:	5f e3       	ldi	r21, 0x3F	; 63
    228c:	0e 94 d0 13 	call	0x27a0	; 0x27a0 <__subsf3>
    2290:	6b 01       	movw	r12, r22
    2292:	7c 01       	movw	r14, r24
    2294:	29 81       	ldd	r18, Y+1	; 0x01
    2296:	3a 81       	ldd	r19, Y+2	; 0x02
    2298:	4b 81       	ldd	r20, Y+3	; 0x03
    229a:	5c 81       	ldd	r21, Y+4	; 0x04
    229c:	ca 01       	movw	r24, r20
    229e:	b9 01       	movw	r22, r18
    22a0:	0e 94 d1 13 	call	0x27a2	; 0x27a2 <__addsf3>
    22a4:	29 85       	ldd	r18, Y+9	; 0x09
    22a6:	3a 85       	ldd	r19, Y+10	; 0x0a
    22a8:	4b 85       	ldd	r20, Y+11	; 0x0b
    22aa:	5c 85       	ldd	r21, Y+12	; 0x0c
    22ac:	0e 94 5b 16 	call	0x2cb6	; 0x2cb6 <__mulsf3>
    22b0:	4b 01       	movw	r8, r22
    22b2:	5c 01       	movw	r10, r24
    22b4:	a3 01       	movw	r20, r6
    22b6:	92 01       	movw	r18, r4
    22b8:	c3 01       	movw	r24, r6
    22ba:	b2 01       	movw	r22, r4
    22bc:	0e 94 d1 13 	call	0x27a2	; 0x27a2 <__addsf3>
    22c0:	2d 85       	ldd	r18, Y+13	; 0x0d
    22c2:	3e 85       	ldd	r19, Y+14	; 0x0e
    22c4:	4f 85       	ldd	r20, Y+15	; 0x0f
    22c6:	58 89       	ldd	r21, Y+16	; 0x10
    22c8:	0e 94 5b 16 	call	0x2cb6	; 0x2cb6 <__mulsf3>
    22cc:	9b 01       	movw	r18, r22
    22ce:	ac 01       	movw	r20, r24
    22d0:	c5 01       	movw	r24, r10
    22d2:	b4 01       	movw	r22, r8
    22d4:	0e 94 d0 13 	call	0x27a0	; 0x27a0 <__subsf3>
    22d8:	a7 01       	movw	r20, r14
    22da:	96 01       	movw	r18, r12
    22dc:	0e 94 6b 14 	call	0x28d6	; 0x28d6 <atan2>
    22e0:	e9 89       	ldd	r30, Y+17	; 0x11
    22e2:	fa 89       	ldd	r31, Y+18	; 0x12
    22e4:	60 83       	st	Z, r22
    22e6:	71 83       	std	Z+1, r23	; 0x01
    22e8:	82 83       	std	Z+2, r24	; 0x02
    22ea:	93 83       	std	Z+3, r25	; 0x03
	*pitch1 = -asin(2*q1*q3 + 2*q0*q2);
    22ec:	60 91 88 00 	lds	r22, 0x0088	; 0x800088 <q1>
    22f0:	70 91 89 00 	lds	r23, 0x0089	; 0x800089 <q1+0x1>
    22f4:	80 91 8a 00 	lds	r24, 0x008A	; 0x80008a <q1+0x2>
    22f8:	90 91 8b 00 	lds	r25, 0x008B	; 0x80008b <q1+0x3>
    22fc:	80 90 80 00 	lds	r8, 0x0080	; 0x800080 <q3>
    2300:	90 90 81 00 	lds	r9, 0x0081	; 0x800081 <q3+0x1>
    2304:	a0 90 82 00 	lds	r10, 0x0082	; 0x800082 <q3+0x2>
    2308:	b0 90 83 00 	lds	r11, 0x0083	; 0x800083 <q3+0x3>
    230c:	c0 90 60 00 	lds	r12, 0x0060	; 0x800060 <__data_start>
    2310:	d0 90 61 00 	lds	r13, 0x0061	; 0x800061 <__data_start+0x1>
    2314:	e0 90 62 00 	lds	r14, 0x0062	; 0x800062 <__data_start+0x2>
    2318:	f0 90 63 00 	lds	r15, 0x0063	; 0x800063 <__data_start+0x3>
    231c:	40 90 84 00 	lds	r4, 0x0084	; 0x800084 <q2>
    2320:	50 90 85 00 	lds	r5, 0x0085	; 0x800085 <q2+0x1>
    2324:	60 90 86 00 	lds	r6, 0x0086	; 0x800086 <q2+0x2>
    2328:	70 90 87 00 	lds	r7, 0x0087	; 0x800087 <q2+0x3>
    232c:	9b 01       	movw	r18, r22
    232e:	ac 01       	movw	r20, r24
    2330:	0e 94 d1 13 	call	0x27a2	; 0x27a2 <__addsf3>
    2334:	a5 01       	movw	r20, r10
    2336:	94 01       	movw	r18, r8
    2338:	0e 94 5b 16 	call	0x2cb6	; 0x2cb6 <__mulsf3>
    233c:	4b 01       	movw	r8, r22
    233e:	5c 01       	movw	r10, r24
    2340:	a7 01       	movw	r20, r14
    2342:	96 01       	movw	r18, r12
    2344:	c7 01       	movw	r24, r14
    2346:	b6 01       	movw	r22, r12
    2348:	0e 94 d1 13 	call	0x27a2	; 0x27a2 <__addsf3>
    234c:	a3 01       	movw	r20, r6
    234e:	92 01       	movw	r18, r4
    2350:	0e 94 5b 16 	call	0x2cb6	; 0x2cb6 <__mulsf3>
    2354:	9b 01       	movw	r18, r22
    2356:	ac 01       	movw	r20, r24
    2358:	c5 01       	movw	r24, r10
    235a:	b4 01       	movw	r22, r8
    235c:	0e 94 d1 13 	call	0x27a2	; 0x27a2 <__addsf3>
    2360:	0e 94 3d 14 	call	0x287a	; 0x287a <asin>
    2364:	dc 01       	movw	r26, r24
    2366:	cb 01       	movw	r24, r22
    2368:	b0 58       	subi	r27, 0x80	; 128
    236a:	f8 01       	movw	r30, r16
    236c:	80 83       	st	Z, r24
    236e:	91 83       	std	Z+1, r25	; 0x01
    2370:	a2 83       	std	Z+2, r26	; 0x02
    2372:	b3 83       	std	Z+3, r27	; 0x03
	*roll1 = atan2(2*q2*q3 - 2*q0*q1, 2*q0*q0 + 2*q3*q3 - 1);
    2374:	60 91 60 00 	lds	r22, 0x0060	; 0x800060 <__data_start>
    2378:	70 91 61 00 	lds	r23, 0x0061	; 0x800061 <__data_start+0x1>
    237c:	80 91 62 00 	lds	r24, 0x0062	; 0x800062 <__data_start+0x2>
    2380:	90 91 63 00 	lds	r25, 0x0063	; 0x800063 <__data_start+0x3>
    2384:	80 90 60 00 	lds	r8, 0x0060	; 0x800060 <__data_start>
    2388:	90 90 61 00 	lds	r9, 0x0061	; 0x800061 <__data_start+0x1>
    238c:	a0 90 62 00 	lds	r10, 0x0062	; 0x800062 <__data_start+0x2>
    2390:	b0 90 63 00 	lds	r11, 0x0063	; 0x800063 <__data_start+0x3>
    2394:	c0 90 80 00 	lds	r12, 0x0080	; 0x800080 <q3>
    2398:	d0 90 81 00 	lds	r13, 0x0081	; 0x800081 <q3+0x1>
    239c:	e0 90 82 00 	lds	r14, 0x0082	; 0x800082 <q3+0x2>
    23a0:	f0 90 83 00 	lds	r15, 0x0083	; 0x800083 <q3+0x3>
    23a4:	20 91 80 00 	lds	r18, 0x0080	; 0x800080 <q3>
    23a8:	30 91 81 00 	lds	r19, 0x0081	; 0x800081 <q3+0x1>
    23ac:	40 91 82 00 	lds	r20, 0x0082	; 0x800082 <q3+0x2>
    23b0:	50 91 83 00 	lds	r21, 0x0083	; 0x800083 <q3+0x3>
    23b4:	2d 83       	std	Y+5, r18	; 0x05
    23b6:	3e 83       	std	Y+6, r19	; 0x06
    23b8:	4f 83       	std	Y+7, r20	; 0x07
    23ba:	58 87       	std	Y+8, r21	; 0x08
    23bc:	20 91 84 00 	lds	r18, 0x0084	; 0x800084 <q2>
    23c0:	30 91 85 00 	lds	r19, 0x0085	; 0x800085 <q2+0x1>
    23c4:	40 91 86 00 	lds	r20, 0x0086	; 0x800086 <q2+0x2>
    23c8:	50 91 87 00 	lds	r21, 0x0087	; 0x800087 <q2+0x3>
    23cc:	29 83       	std	Y+1, r18	; 0x01
    23ce:	3a 83       	std	Y+2, r19	; 0x02
    23d0:	4b 83       	std	Y+3, r20	; 0x03
    23d2:	5c 83       	std	Y+4, r21	; 0x04
    23d4:	20 91 80 00 	lds	r18, 0x0080	; 0x800080 <q3>
    23d8:	30 91 81 00 	lds	r19, 0x0081	; 0x800081 <q3+0x1>
    23dc:	40 91 82 00 	lds	r20, 0x0082	; 0x800082 <q3+0x2>
    23e0:	50 91 83 00 	lds	r21, 0x0083	; 0x800083 <q3+0x3>
    23e4:	29 87       	std	Y+9, r18	; 0x09
    23e6:	3a 87       	std	Y+10, r19	; 0x0a
    23e8:	4b 87       	std	Y+11, r20	; 0x0b
    23ea:	5c 87       	std	Y+12, r21	; 0x0c
    23ec:	40 90 60 00 	lds	r4, 0x0060	; 0x800060 <__data_start>
    23f0:	50 90 61 00 	lds	r5, 0x0061	; 0x800061 <__data_start+0x1>
    23f4:	60 90 62 00 	lds	r6, 0x0062	; 0x800062 <__data_start+0x2>
    23f8:	70 90 63 00 	lds	r7, 0x0063	; 0x800063 <__data_start+0x3>
    23fc:	20 91 88 00 	lds	r18, 0x0088	; 0x800088 <q1>
    2400:	30 91 89 00 	lds	r19, 0x0089	; 0x800089 <q1+0x1>
    2404:	40 91 8a 00 	lds	r20, 0x008A	; 0x80008a <q1+0x2>
    2408:	50 91 8b 00 	lds	r21, 0x008B	; 0x80008b <q1+0x3>
    240c:	2d 87       	std	Y+13, r18	; 0x0d
    240e:	3e 87       	std	Y+14, r19	; 0x0e
    2410:	4f 87       	std	Y+15, r20	; 0x0f
    2412:	58 8b       	std	Y+16, r21	; 0x10
    2414:	9b 01       	movw	r18, r22
    2416:	ac 01       	movw	r20, r24
    2418:	0e 94 d1 13 	call	0x27a2	; 0x27a2 <__addsf3>
    241c:	a5 01       	movw	r20, r10
    241e:	94 01       	movw	r18, r8
    2420:	0e 94 5b 16 	call	0x2cb6	; 0x2cb6 <__mulsf3>
    2424:	4b 01       	movw	r8, r22
    2426:	5c 01       	movw	r10, r24
    2428:	a7 01       	movw	r20, r14
    242a:	96 01       	movw	r18, r12
    242c:	c7 01       	movw	r24, r14
    242e:	b6 01       	movw	r22, r12
    2430:	0e 94 d1 13 	call	0x27a2	; 0x27a2 <__addsf3>
    2434:	2d 81       	ldd	r18, Y+5	; 0x05
    2436:	3e 81       	ldd	r19, Y+6	; 0x06
    2438:	4f 81       	ldd	r20, Y+7	; 0x07
    243a:	58 85       	ldd	r21, Y+8	; 0x08
    243c:	0e 94 5b 16 	call	0x2cb6	; 0x2cb6 <__mulsf3>
    2440:	9b 01       	movw	r18, r22
    2442:	ac 01       	movw	r20, r24
    2444:	c5 01       	movw	r24, r10
    2446:	b4 01       	movw	r22, r8
    2448:	0e 94 d1 13 	call	0x27a2	; 0x27a2 <__addsf3>
    244c:	20 e0       	ldi	r18, 0x00	; 0
    244e:	30 e0       	ldi	r19, 0x00	; 0
    2450:	40 e8       	ldi	r20, 0x80	; 128
    2452:	5f e3       	ldi	r21, 0x3F	; 63
    2454:	0e 94 d0 13 	call	0x27a0	; 0x27a0 <__subsf3>
    2458:	6b 01       	movw	r12, r22
    245a:	7c 01       	movw	r14, r24
    245c:	29 81       	ldd	r18, Y+1	; 0x01
    245e:	3a 81       	ldd	r19, Y+2	; 0x02
    2460:	4b 81       	ldd	r20, Y+3	; 0x03
    2462:	5c 81       	ldd	r21, Y+4	; 0x04
    2464:	ca 01       	movw	r24, r20
    2466:	b9 01       	movw	r22, r18
    2468:	0e 94 d1 13 	call	0x27a2	; 0x27a2 <__addsf3>
    246c:	29 85       	ldd	r18, Y+9	; 0x09
    246e:	3a 85       	ldd	r19, Y+10	; 0x0a
    2470:	4b 85       	ldd	r20, Y+11	; 0x0b
    2472:	5c 85       	ldd	r21, Y+12	; 0x0c
    2474:	0e 94 5b 16 	call	0x2cb6	; 0x2cb6 <__mulsf3>
    2478:	4b 01       	movw	r8, r22
    247a:	5c 01       	movw	r10, r24
    247c:	a3 01       	movw	r20, r6
    247e:	92 01       	movw	r18, r4
    2480:	c3 01       	movw	r24, r6
    2482:	b2 01       	movw	r22, r4
    2484:	0e 94 d1 13 	call	0x27a2	; 0x27a2 <__addsf3>
    2488:	2d 85       	ldd	r18, Y+13	; 0x0d
    248a:	3e 85       	ldd	r19, Y+14	; 0x0e
    248c:	4f 85       	ldd	r20, Y+15	; 0x0f
    248e:	58 89       	ldd	r21, Y+16	; 0x10
    2490:	0e 94 5b 16 	call	0x2cb6	; 0x2cb6 <__mulsf3>
    2494:	9b 01       	movw	r18, r22
    2496:	ac 01       	movw	r20, r24
    2498:	c5 01       	movw	r24, r10
    249a:	b4 01       	movw	r22, r8
    249c:	0e 94 d0 13 	call	0x27a0	; 0x27a0 <__subsf3>
    24a0:	a7 01       	movw	r20, r14
    24a2:	96 01       	movw	r18, r12
    24a4:	0e 94 6b 14 	call	0x28d6	; 0x28d6 <atan2>
    24a8:	f1 01       	movw	r30, r2
    24aa:	60 83       	st	Z, r22
    24ac:	71 83       	std	Z+1, r23	; 0x01
    24ae:	82 83       	std	Z+2, r24	; 0x02
    24b0:	93 83       	std	Z+3, r25	; 0x03
}
    24b2:	62 96       	adiw	r28, 0x12	; 18
    24b4:	0f b6       	in	r0, 0x3f	; 63
    24b6:	f8 94       	cli
    24b8:	de bf       	out	0x3e, r29	; 62
    24ba:	0f be       	out	0x3f, r0	; 63
    24bc:	cd bf       	out	0x3d, r28	; 61
    24be:	df 91       	pop	r29
    24c0:	cf 91       	pop	r28
    24c2:	1f 91       	pop	r17
    24c4:	0f 91       	pop	r16
    24c6:	ff 90       	pop	r15
    24c8:	ef 90       	pop	r14
    24ca:	df 90       	pop	r13
    24cc:	cf 90       	pop	r12
    24ce:	bf 90       	pop	r11
    24d0:	af 90       	pop	r10
    24d2:	9f 90       	pop	r9
    24d4:	8f 90       	pop	r8
    24d6:	7f 90       	pop	r7
    24d8:	6f 90       	pop	r6
    24da:	5f 90       	pop	r5
    24dc:	4f 90       	pop	r4
    24de:	3f 90       	pop	r3
    24e0:	2f 90       	pop	r2
    24e2:	08 95       	ret

000024e4 <send_data>:

void send_data()
{
    24e4:	1f 93       	push	r17
    24e6:	cf 93       	push	r28
    24e8:	df 93       	push	r29
	long *ptr = 0;
	uint8_t buttons;
	buttons = PINA;
    24ea:	19 b3       	in	r17, 0x19	; 25
	ptr = (long *)(&roll);
	uart_putc(*ptr);
    24ec:	c0 e7       	ldi	r28, 0x70	; 112
    24ee:	d0 e0       	ldi	r29, 0x00	; 0
    24f0:	88 81       	ld	r24, Y
    24f2:	0e 94 a5 13 	call	0x274a	; 0x274a <uart_putc>
	uart_putc(*ptr>>8);
    24f6:	89 81       	ldd	r24, Y+1	; 0x01
    24f8:	0e 94 a5 13 	call	0x274a	; 0x274a <uart_putc>
	uart_putc(*ptr>>16);
    24fc:	8a 81       	ldd	r24, Y+2	; 0x02
    24fe:	0e 94 a5 13 	call	0x274a	; 0x274a <uart_putc>
	uart_putc(*ptr>>24);
    2502:	8b 81       	ldd	r24, Y+3	; 0x03
    2504:	0e 94 a5 13 	call	0x274a	; 0x274a <uart_putc>
	ptr = (long *)(&pitch);
	uart_putc(*ptr);
    2508:	c8 e6       	ldi	r28, 0x68	; 104
    250a:	d0 e0       	ldi	r29, 0x00	; 0
    250c:	88 81       	ld	r24, Y
    250e:	0e 94 a5 13 	call	0x274a	; 0x274a <uart_putc>
	uart_putc(*ptr>>8);
    2512:	89 81       	ldd	r24, Y+1	; 0x01
    2514:	0e 94 a5 13 	call	0x274a	; 0x274a <uart_putc>
	uart_putc(*ptr>>16);
    2518:	8a 81       	ldd	r24, Y+2	; 0x02
    251a:	0e 94 a5 13 	call	0x274a	; 0x274a <uart_putc>
	uart_putc(*ptr>>24);
    251e:	8b 81       	ldd	r24, Y+3	; 0x03
    2520:	0e 94 a5 13 	call	0x274a	; 0x274a <uart_putc>
	ptr = (long *)(&yaw);
	uart_putc(*ptr);
    2524:	cc e6       	ldi	r28, 0x6C	; 108
    2526:	d0 e0       	ldi	r29, 0x00	; 0
    2528:	88 81       	ld	r24, Y
    252a:	0e 94 a5 13 	call	0x274a	; 0x274a <uart_putc>
	uart_putc(*ptr>>8);
    252e:	89 81       	ldd	r24, Y+1	; 0x01
    2530:	0e 94 a5 13 	call	0x274a	; 0x274a <uart_putc>
	uart_putc(*ptr>>16);
    2534:	8a 81       	ldd	r24, Y+2	; 0x02
    2536:	0e 94 a5 13 	call	0x274a	; 0x274a <uart_putc>
	uart_putc(*ptr>>24);
    253a:	8b 81       	ldd	r24, Y+3	; 0x03
    253c:	0e 94 a5 13 	call	0x274a	; 0x274a <uart_putc>
	uart_putc(buttons);
    2540:	81 2f       	mov	r24, r17
    2542:	0e 94 a5 13 	call	0x274a	; 0x274a <uart_putc>
	uart_putc('\n');
    2546:	8a e0       	ldi	r24, 0x0A	; 10
    2548:	0e 94 a5 13 	call	0x274a	; 0x274a <uart_putc>
}
    254c:	df 91       	pop	r29
    254e:	cf 91       	pop	r28
    2550:	1f 91       	pop	r17
    2552:	08 95       	ret

00002554 <__vector_9>:
}

/*
 * update timer for attitude
 */
ISR(TIMER0_OVF_vect) {
    2554:	1f 92       	push	r1
    2556:	0f 92       	push	r0
    2558:	0f b6       	in	r0, 0x3f	; 63
    255a:	0f 92       	push	r0
    255c:	11 24       	eor	r1, r1
    255e:	2f 93       	push	r18
    2560:	3f 93       	push	r19
    2562:	4f 93       	push	r20
    2564:	5f 93       	push	r21
    2566:	6f 93       	push	r22
    2568:	7f 93       	push	r23
    256a:	8f 93       	push	r24
    256c:	9f 93       	push	r25
    256e:	af 93       	push	r26
    2570:	bf 93       	push	r27
    2572:	ef 93       	push	r30
    2574:	ff 93       	push	r31
	mpu6050_updateQuaternion();
    2576:	0e 94 8c 0f 	call	0x1f18	; 0x1f18 <mpu6050_updateQuaternion>
	mpu6050_getRollPitchYaw(&roll, &pitch, &yaw);
    257a:	4c e6       	ldi	r20, 0x6C	; 108
    257c:	50 e0       	ldi	r21, 0x00	; 0
    257e:	68 e6       	ldi	r22, 0x68	; 104
    2580:	70 e0       	ldi	r23, 0x00	; 0
    2582:	80 e7       	ldi	r24, 0x70	; 112
    2584:	90 e0       	ldi	r25, 0x00	; 0
    2586:	0e 94 b8 10 	call	0x2170	; 0x2170 <mpu6050_getRollPitchYaw>
	send_data();
    258a:	0e 94 72 12 	call	0x24e4	; 0x24e4 <send_data>
}
    258e:	ff 91       	pop	r31
    2590:	ef 91       	pop	r30
    2592:	bf 91       	pop	r27
    2594:	af 91       	pop	r26
    2596:	9f 91       	pop	r25
    2598:	8f 91       	pop	r24
    259a:	7f 91       	pop	r23
    259c:	6f 91       	pop	r22
    259e:	5f 91       	pop	r21
    25a0:	4f 91       	pop	r20
    25a2:	3f 91       	pop	r19
    25a4:	2f 91       	pop	r18
    25a6:	0f 90       	pop	r0
    25a8:	0f be       	out	0x3f, r0	; 63
    25aa:	0f 90       	pop	r0
    25ac:	1f 90       	pop	r1
    25ae:	18 95       	reti

000025b0 <i2c_init>:
*************************************************************************/
unsigned char i2c_rep_start(unsigned char address)
{
    return i2c_start( address );

}/* i2c_rep_start */
    25b0:	11 b8       	out	0x01, r1	; 1
    25b2:	8c e0       	ldi	r24, 0x0C	; 12
    25b4:	80 b9       	out	0x00, r24	; 0
    25b6:	08 95       	ret

000025b8 <i2c_start>:
    25b8:	94 ea       	ldi	r25, 0xA4	; 164
    25ba:	96 bf       	out	0x36, r25	; 54
    25bc:	4f ef       	ldi	r20, 0xFF	; 255
    25be:	50 e0       	ldi	r21, 0x00	; 0
    25c0:	60 e0       	ldi	r22, 0x00	; 0
    25c2:	70 e0       	ldi	r23, 0x00	; 0
    25c4:	06 b6       	in	r0, 0x36	; 54
    25c6:	07 fc       	sbrc	r0, 7
    25c8:	06 c0       	rjmp	.+12     	; 0x25d6 <i2c_start+0x1e>
    25ca:	41 50       	subi	r20, 0x01	; 1
    25cc:	51 09       	sbc	r21, r1
    25ce:	61 09       	sbc	r22, r1
    25d0:	71 09       	sbc	r23, r1
    25d2:	c0 f7       	brcc	.-16     	; 0x25c4 <i2c_start+0xc>
    25d4:	04 c0       	rjmp	.+8      	; 0x25de <i2c_start+0x26>
    25d6:	45 2b       	or	r20, r21
    25d8:	46 2b       	or	r20, r22
    25da:	47 2b       	or	r20, r23
    25dc:	11 f1       	breq	.+68     	; 0x2622 <i2c_start+0x6a>
    25de:	91 b1       	in	r25, 0x01	; 1
    25e0:	98 7f       	andi	r25, 0xF8	; 248
    25e2:	98 30       	cpi	r25, 0x08	; 8
    25e4:	11 f0       	breq	.+4      	; 0x25ea <i2c_start+0x32>
    25e6:	90 31       	cpi	r25, 0x10	; 16
    25e8:	f1 f4       	brne	.+60     	; 0x2626 <i2c_start+0x6e>
    25ea:	83 b9       	out	0x03, r24	; 3
    25ec:	84 e8       	ldi	r24, 0x84	; 132
    25ee:	86 bf       	out	0x36, r24	; 54
    25f0:	8f ef       	ldi	r24, 0xFF	; 255
    25f2:	90 e0       	ldi	r25, 0x00	; 0
    25f4:	a0 e0       	ldi	r26, 0x00	; 0
    25f6:	b0 e0       	ldi	r27, 0x00	; 0
    25f8:	06 b6       	in	r0, 0x36	; 54
    25fa:	07 fc       	sbrc	r0, 7
    25fc:	05 c0       	rjmp	.+10     	; 0x2608 <i2c_start+0x50>
    25fe:	01 97       	sbiw	r24, 0x01	; 1
    2600:	a1 09       	sbc	r26, r1
    2602:	b1 09       	sbc	r27, r1
    2604:	c8 f7       	brcc	.-14     	; 0x25f8 <i2c_start+0x40>
    2606:	04 c0       	rjmp	.+8      	; 0x2610 <i2c_start+0x58>
    2608:	89 2b       	or	r24, r25
    260a:	8a 2b       	or	r24, r26
    260c:	8b 2b       	or	r24, r27
    260e:	69 f0       	breq	.+26     	; 0x262a <i2c_start+0x72>
    2610:	91 b1       	in	r25, 0x01	; 1
    2612:	98 7f       	andi	r25, 0xF8	; 248
    2614:	98 31       	cpi	r25, 0x18	; 24
    2616:	59 f0       	breq	.+22     	; 0x262e <i2c_start+0x76>
    2618:	81 e0       	ldi	r24, 0x01	; 1
    261a:	90 34       	cpi	r25, 0x40	; 64
    261c:	49 f4       	brne	.+18     	; 0x2630 <i2c_start+0x78>
    261e:	80 e0       	ldi	r24, 0x00	; 0
    2620:	08 95       	ret
    2622:	81 e0       	ldi	r24, 0x01	; 1
    2624:	08 95       	ret
    2626:	81 e0       	ldi	r24, 0x01	; 1
    2628:	08 95       	ret
    262a:	81 e0       	ldi	r24, 0x01	; 1
    262c:	08 95       	ret
    262e:	80 e0       	ldi	r24, 0x00	; 0
    2630:	08 95       	ret

00002632 <i2c_stop>:
void i2c_stop(void)
{
	uint32_t  i2c_timer = 0;

    /* send stop condition */
	TWCR = (1<<TWINT) | (1<<TWEN) | (1<<TWSTO);
    2632:	84 e9       	ldi	r24, 0x94	; 148
    2634:	86 bf       	out	0x36, r24	; 54
	
	// wait until stop condition is executed and bus released
	i2c_timer = I2C_TIMER_DELAY;
	while((TWCR & (1<<TWSTO)) && i2c_timer--);
    2636:	80 e0       	ldi	r24, 0x00	; 0
    2638:	90 e0       	ldi	r25, 0x00	; 0
    263a:	06 b6       	in	r0, 0x36	; 54
    263c:	04 fe       	sbrs	r0, 4
    263e:	05 c0       	rjmp	.+10     	; 0x264a <i2c_stop+0x18>
    2640:	01 96       	adiw	r24, 0x01	; 1
    2642:	81 15       	cp	r24, r1
    2644:	21 e0       	ldi	r18, 0x01	; 1
    2646:	92 07       	cpc	r25, r18
    2648:	c1 f7       	brne	.-16     	; 0x263a <i2c_stop+0x8>
    264a:	08 95       	ret

0000264c <i2c_write>:
{	
	uint32_t  i2c_timer = 0;
    uint8_t   twst;
    
	// send data to the previously addressed device
	TWDR = data;
    264c:	83 b9       	out	0x03, r24	; 3
	TWCR = (1<<TWINT) | (1<<TWEN);
    264e:	84 e8       	ldi	r24, 0x84	; 132
    2650:	86 bf       	out	0x36, r24	; 54

	// wait until transmission completed
	i2c_timer = I2C_TIMER_DELAY;
    2652:	8f ef       	ldi	r24, 0xFF	; 255
    2654:	90 e0       	ldi	r25, 0x00	; 0
    2656:	a0 e0       	ldi	r26, 0x00	; 0
    2658:	b0 e0       	ldi	r27, 0x00	; 0
	while(!(TWCR & (1<<TWINT)) && i2c_timer--);
    265a:	06 b6       	in	r0, 0x36	; 54
    265c:	07 fc       	sbrc	r0, 7
    265e:	05 c0       	rjmp	.+10     	; 0x266a <i2c_write+0x1e>
    2660:	01 97       	sbiw	r24, 0x01	; 1
    2662:	a1 09       	sbc	r26, r1
    2664:	b1 09       	sbc	r27, r1
    2666:	c8 f7       	brcc	.-14     	; 0x265a <i2c_write+0xe>
    2668:	04 c0       	rjmp	.+8      	; 0x2672 <i2c_write+0x26>
	if(i2c_timer == 0)
    266a:	89 2b       	or	r24, r25
    266c:	8a 2b       	or	r24, r26
    266e:	8b 2b       	or	r24, r27
    2670:	39 f0       	breq	.+14     	; 0x2680 <i2c_write+0x34>
		return 1;

	// check value of TWI Status Register. Mask prescaler bits
	twst = TW_STATUS & 0xF8;
    2672:	91 b1       	in	r25, 0x01	; 1

	// wait until transmission completed
	i2c_timer = I2C_TIMER_DELAY;
	while(!(TWCR & (1<<TWINT)) && i2c_timer--);
	if(i2c_timer == 0)
		return 1;
    2674:	98 7f       	andi	r25, 0xF8	; 248
    2676:	81 e0       	ldi	r24, 0x01	; 1
    2678:	98 32       	cpi	r25, 0x28	; 40
    267a:	19 f4       	brne	.+6      	; 0x2682 <i2c_write+0x36>
    267c:	80 e0       	ldi	r24, 0x00	; 0
    267e:	08 95       	ret
    2680:	81 e0       	ldi	r24, 0x01	; 1
	// check value of TWI Status Register. Mask prescaler bits
	twst = TW_STATUS & 0xF8;
	if( twst != TW_MT_DATA_ACK) return 1;
	return 0;

}/* i2c_write */
    2682:	08 95       	ret

00002684 <i2c_readAck>:
*************************************************************************/
unsigned char i2c_readAck(void)
{
	uint32_t  i2c_timer = 0;

	TWCR = (1<<TWINT) | (1<<TWEN) | (1<<TWEA);
    2684:	84 ec       	ldi	r24, 0xC4	; 196
    2686:	86 bf       	out	0x36, r24	; 54
	i2c_timer = I2C_TIMER_DELAY;
    2688:	8f ef       	ldi	r24, 0xFF	; 255
    268a:	90 e0       	ldi	r25, 0x00	; 0
    268c:	a0 e0       	ldi	r26, 0x00	; 0
    268e:	b0 e0       	ldi	r27, 0x00	; 0
	while(!(TWCR & (1<<TWINT)) && i2c_timer--);
    2690:	06 b6       	in	r0, 0x36	; 54
    2692:	07 fc       	sbrc	r0, 7
    2694:	05 c0       	rjmp	.+10     	; 0x26a0 <i2c_readAck+0x1c>
    2696:	01 97       	sbiw	r24, 0x01	; 1
    2698:	a1 09       	sbc	r26, r1
    269a:	b1 09       	sbc	r27, r1
    269c:	c8 f7       	brcc	.-14     	; 0x2690 <i2c_readAck+0xc>
    269e:	04 c0       	rjmp	.+8      	; 0x26a8 <i2c_readAck+0x24>
	if(i2c_timer == 0)
    26a0:	89 2b       	or	r24, r25
    26a2:	8a 2b       	or	r24, r26
    26a4:	8b 2b       	or	r24, r27
    26a6:	11 f0       	breq	.+4      	; 0x26ac <i2c_readAck+0x28>
		return 0;

    return TWDR;
    26a8:	83 b1       	in	r24, 0x03	; 3
    26aa:	08 95       	ret

	TWCR = (1<<TWINT) | (1<<TWEN) | (1<<TWEA);
	i2c_timer = I2C_TIMER_DELAY;
	while(!(TWCR & (1<<TWINT)) && i2c_timer--);
	if(i2c_timer == 0)
		return 0;
    26ac:	80 e0       	ldi	r24, 0x00	; 0

    return TWDR;

}/* i2c_readAck */
    26ae:	08 95       	ret

000026b0 <i2c_readNak>:
*************************************************************************/
unsigned char i2c_readNak(void)
{
	uint32_t  i2c_timer = 0;

	TWCR = (1<<TWINT) | (1<<TWEN);
    26b0:	84 e8       	ldi	r24, 0x84	; 132
    26b2:	86 bf       	out	0x36, r24	; 54
	i2c_timer = I2C_TIMER_DELAY;
    26b4:	8f ef       	ldi	r24, 0xFF	; 255
    26b6:	90 e0       	ldi	r25, 0x00	; 0
    26b8:	a0 e0       	ldi	r26, 0x00	; 0
    26ba:	b0 e0       	ldi	r27, 0x00	; 0
	while(!(TWCR & (1<<TWINT)) && i2c_timer--);
    26bc:	06 b6       	in	r0, 0x36	; 54
    26be:	07 fc       	sbrc	r0, 7
    26c0:	05 c0       	rjmp	.+10     	; 0x26cc <i2c_readNak+0x1c>
    26c2:	01 97       	sbiw	r24, 0x01	; 1
    26c4:	a1 09       	sbc	r26, r1
    26c6:	b1 09       	sbc	r27, r1
    26c8:	c8 f7       	brcc	.-14     	; 0x26bc <i2c_readNak+0xc>
    26ca:	04 c0       	rjmp	.+8      	; 0x26d4 <i2c_readNak+0x24>
	if(i2c_timer == 0)
    26cc:	89 2b       	or	r24, r25
    26ce:	8a 2b       	or	r24, r26
    26d0:	8b 2b       	or	r24, r27
    26d2:	11 f0       	breq	.+4      	; 0x26d8 <i2c_readNak+0x28>
		return 0;
	
    return TWDR;
    26d4:	83 b1       	in	r24, 0x03	; 3
    26d6:	08 95       	ret

	TWCR = (1<<TWINT) | (1<<TWEN);
	i2c_timer = I2C_TIMER_DELAY;
	while(!(TWCR & (1<<TWINT)) && i2c_timer--);
	if(i2c_timer == 0)
		return 0;
    26d8:	80 e0       	ldi	r24, 0x00	; 0
	
    return TWDR;

}/* i2c_readNak */
    26da:	08 95       	ret

000026dc <uartInit>:
}

void uartRead(uint8_t* data, uint8_t size)
{
	uint8_t byte;
	for (byte=0;byte<size;byte++)
    26dc:	8f 92       	push	r8
    26de:	9f 92       	push	r9
    26e0:	af 92       	push	r10
    26e2:	bf 92       	push	r11
    26e4:	ef 92       	push	r14
    26e6:	ff 92       	push	r15
    26e8:	0f 93       	push	r16
    26ea:	4c 01       	movw	r8, r24
    26ec:	cb 01       	movw	r24, r22
    26ee:	ba 01       	movw	r22, r20
    26f0:	22 23       	and	r18, r18
    26f2:	19 f0       	breq	.+6      	; 0x26fa <uartInit+0x1e>
    26f4:	59 9a       	sbi	0x0b, 1	; 11
    26f6:	28 e0       	ldi	r18, 0x08	; 8
    26f8:	01 c0       	rjmp	.+2      	; 0x26fc <uartInit+0x20>
    26fa:	20 e1       	ldi	r18, 0x10	; 16
    26fc:	30 e0       	ldi	r19, 0x00	; 0
    26fe:	40 e0       	ldi	r20, 0x00	; 0
    2700:	50 e0       	ldi	r21, 0x00	; 0
    2702:	0e 94 27 17 	call	0x2e4e	; 0x2e4e <__udivmodsi4>
    2706:	a1 2c       	mov	r10, r1
    2708:	b1 2c       	mov	r11, r1
    270a:	ca 01       	movw	r24, r20
    270c:	b9 01       	movw	r22, r18
    270e:	a5 01       	movw	r20, r10
    2710:	94 01       	movw	r18, r8
    2712:	0e 94 27 17 	call	0x2e4e	; 0x2e4e <__udivmodsi4>
    2716:	21 50       	subi	r18, 0x01	; 1
    2718:	31 09       	sbc	r19, r1
    271a:	30 bd       	out	0x20, r19	; 32
    271c:	29 b9       	out	0x09, r18	; 9
    271e:	8a b1       	in	r24, 0x0a	; 10
    2720:	88 61       	ori	r24, 0x18	; 24
    2722:	8a b9       	out	0x0a, r24	; 10
    2724:	80 b5       	in	r24, 0x20	; 32
    2726:	86 68       	ori	r24, 0x86	; 134
    2728:	80 bd       	out	0x20, r24	; 32
    272a:	00 23       	and	r16, r16
    272c:	31 f0       	breq	.+12     	; 0x273a <uartInit+0x5e>
    272e:	57 9a       	sbi	0x0a, 7	; 10
    2730:	f0 92 9f 00 	sts	0x009F, r15	; 0x80009f <uartReceiveCallback+0x1>
    2734:	e0 92 9e 00 	sts	0x009E, r14	; 0x80009e <uartReceiveCallback>
    2738:	78 94       	sei
    273a:	0f 91       	pop	r16
    273c:	ff 90       	pop	r15
    273e:	ef 90       	pop	r14
    2740:	bf 90       	pop	r11
    2742:	af 90       	pop	r10
    2744:	9f 90       	pop	r9
    2746:	8f 90       	pop	r8
    2748:	08 95       	ret

0000274a <uart_putc>:
    274a:	5d 9b       	sbis	0x0b, 5	; 11
    274c:	fe cf       	rjmp	.-4      	; 0x274a <uart_putc>
    274e:	8c b9       	out	0x0c, r24	; 12
    2750:	08 95       	ret

00002752 <__vector_11>:
        while ( !(UCSRA & (1<<RXC)) );
        data[byte]=UDR;// Receive through UART
    }
}
ISR(USART_RXC_vect)
{
    2752:	1f 92       	push	r1
    2754:	0f 92       	push	r0
    2756:	0f b6       	in	r0, 0x3f	; 63
    2758:	0f 92       	push	r0
    275a:	11 24       	eor	r1, r1
    275c:	2f 93       	push	r18
    275e:	3f 93       	push	r19
    2760:	4f 93       	push	r20
    2762:	5f 93       	push	r21
    2764:	6f 93       	push	r22
    2766:	7f 93       	push	r23
    2768:	8f 93       	push	r24
    276a:	9f 93       	push	r25
    276c:	af 93       	push	r26
    276e:	bf 93       	push	r27
    2770:	ef 93       	push	r30
    2772:	ff 93       	push	r31
    uartReceiveCallback();
    2774:	e0 91 9e 00 	lds	r30, 0x009E	; 0x80009e <uartReceiveCallback>
    2778:	f0 91 9f 00 	lds	r31, 0x009F	; 0x80009f <uartReceiveCallback+0x1>
    277c:	09 95       	icall
}
    277e:	ff 91       	pop	r31
    2780:	ef 91       	pop	r30
    2782:	bf 91       	pop	r27
    2784:	af 91       	pop	r26
    2786:	9f 91       	pop	r25
    2788:	8f 91       	pop	r24
    278a:	7f 91       	pop	r23
    278c:	6f 91       	pop	r22
    278e:	5f 91       	pop	r21
    2790:	4f 91       	pop	r20
    2792:	3f 91       	pop	r19
    2794:	2f 91       	pop	r18
    2796:	0f 90       	pop	r0
    2798:	0f be       	out	0x3f, r0	; 63
    279a:	0f 90       	pop	r0
    279c:	1f 90       	pop	r1
    279e:	18 95       	reti

000027a0 <__subsf3>:
    27a0:	50 58       	subi	r21, 0x80	; 128

000027a2 <__addsf3>:
    27a2:	bb 27       	eor	r27, r27
    27a4:	aa 27       	eor	r26, r26
    27a6:	0e 94 e8 13 	call	0x27d0	; 0x27d0 <__addsf3x>
    27aa:	0c 94 14 16 	jmp	0x2c28	; 0x2c28 <__fp_round>
    27ae:	0e 94 06 16 	call	0x2c0c	; 0x2c0c <__fp_pscA>
    27b2:	38 f0       	brcs	.+14     	; 0x27c2 <__addsf3+0x20>
    27b4:	0e 94 0d 16 	call	0x2c1a	; 0x2c1a <__fp_pscB>
    27b8:	20 f0       	brcs	.+8      	; 0x27c2 <__addsf3+0x20>
    27ba:	39 f4       	brne	.+14     	; 0x27ca <__addsf3+0x28>
    27bc:	9f 3f       	cpi	r25, 0xFF	; 255
    27be:	19 f4       	brne	.+6      	; 0x27c6 <__addsf3+0x24>
    27c0:	26 f4       	brtc	.+8      	; 0x27ca <__addsf3+0x28>
    27c2:	0c 94 c8 15 	jmp	0x2b90	; 0x2b90 <__fp_nan>
    27c6:	0e f4       	brtc	.+2      	; 0x27ca <__addsf3+0x28>
    27c8:	e0 95       	com	r30
    27ca:	e7 fb       	bst	r30, 7
    27cc:	0c 94 c2 15 	jmp	0x2b84	; 0x2b84 <__fp_inf>

000027d0 <__addsf3x>:
    27d0:	e9 2f       	mov	r30, r25
    27d2:	0e 94 25 16 	call	0x2c4a	; 0x2c4a <__fp_split3>
    27d6:	58 f3       	brcs	.-42     	; 0x27ae <__addsf3+0xc>
    27d8:	ba 17       	cp	r27, r26
    27da:	62 07       	cpc	r22, r18
    27dc:	73 07       	cpc	r23, r19
    27de:	84 07       	cpc	r24, r20
    27e0:	95 07       	cpc	r25, r21
    27e2:	20 f0       	brcs	.+8      	; 0x27ec <__addsf3x+0x1c>
    27e4:	79 f4       	brne	.+30     	; 0x2804 <__addsf3x+0x34>
    27e6:	a6 f5       	brtc	.+104    	; 0x2850 <__addsf3x+0x80>
    27e8:	0c 94 47 16 	jmp	0x2c8e	; 0x2c8e <__fp_zero>
    27ec:	0e f4       	brtc	.+2      	; 0x27f0 <__addsf3x+0x20>
    27ee:	e0 95       	com	r30
    27f0:	0b 2e       	mov	r0, r27
    27f2:	ba 2f       	mov	r27, r26
    27f4:	a0 2d       	mov	r26, r0
    27f6:	0b 01       	movw	r0, r22
    27f8:	b9 01       	movw	r22, r18
    27fa:	90 01       	movw	r18, r0
    27fc:	0c 01       	movw	r0, r24
    27fe:	ca 01       	movw	r24, r20
    2800:	a0 01       	movw	r20, r0
    2802:	11 24       	eor	r1, r1
    2804:	ff 27       	eor	r31, r31
    2806:	59 1b       	sub	r21, r25
    2808:	99 f0       	breq	.+38     	; 0x2830 <__addsf3x+0x60>
    280a:	59 3f       	cpi	r21, 0xF9	; 249
    280c:	50 f4       	brcc	.+20     	; 0x2822 <__addsf3x+0x52>
    280e:	50 3e       	cpi	r21, 0xE0	; 224
    2810:	68 f1       	brcs	.+90     	; 0x286c <__addsf3x+0x9c>
    2812:	1a 16       	cp	r1, r26
    2814:	f0 40       	sbci	r31, 0x00	; 0
    2816:	a2 2f       	mov	r26, r18
    2818:	23 2f       	mov	r18, r19
    281a:	34 2f       	mov	r19, r20
    281c:	44 27       	eor	r20, r20
    281e:	58 5f       	subi	r21, 0xF8	; 248
    2820:	f3 cf       	rjmp	.-26     	; 0x2808 <__addsf3x+0x38>
    2822:	46 95       	lsr	r20
    2824:	37 95       	ror	r19
    2826:	27 95       	ror	r18
    2828:	a7 95       	ror	r26
    282a:	f0 40       	sbci	r31, 0x00	; 0
    282c:	53 95       	inc	r21
    282e:	c9 f7       	brne	.-14     	; 0x2822 <__addsf3x+0x52>
    2830:	7e f4       	brtc	.+30     	; 0x2850 <__addsf3x+0x80>
    2832:	1f 16       	cp	r1, r31
    2834:	ba 0b       	sbc	r27, r26
    2836:	62 0b       	sbc	r22, r18
    2838:	73 0b       	sbc	r23, r19
    283a:	84 0b       	sbc	r24, r20
    283c:	ba f0       	brmi	.+46     	; 0x286c <__addsf3x+0x9c>
    283e:	91 50       	subi	r25, 0x01	; 1
    2840:	a1 f0       	breq	.+40     	; 0x286a <__addsf3x+0x9a>
    2842:	ff 0f       	add	r31, r31
    2844:	bb 1f       	adc	r27, r27
    2846:	66 1f       	adc	r22, r22
    2848:	77 1f       	adc	r23, r23
    284a:	88 1f       	adc	r24, r24
    284c:	c2 f7       	brpl	.-16     	; 0x283e <__addsf3x+0x6e>
    284e:	0e c0       	rjmp	.+28     	; 0x286c <__addsf3x+0x9c>
    2850:	ba 0f       	add	r27, r26
    2852:	62 1f       	adc	r22, r18
    2854:	73 1f       	adc	r23, r19
    2856:	84 1f       	adc	r24, r20
    2858:	48 f4       	brcc	.+18     	; 0x286c <__addsf3x+0x9c>
    285a:	87 95       	ror	r24
    285c:	77 95       	ror	r23
    285e:	67 95       	ror	r22
    2860:	b7 95       	ror	r27
    2862:	f7 95       	ror	r31
    2864:	9e 3f       	cpi	r25, 0xFE	; 254
    2866:	08 f0       	brcs	.+2      	; 0x286a <__addsf3x+0x9a>
    2868:	b0 cf       	rjmp	.-160    	; 0x27ca <__addsf3+0x28>
    286a:	93 95       	inc	r25
    286c:	88 0f       	add	r24, r24
    286e:	08 f0       	brcs	.+2      	; 0x2872 <__addsf3x+0xa2>
    2870:	99 27       	eor	r25, r25
    2872:	ee 0f       	add	r30, r30
    2874:	97 95       	ror	r25
    2876:	87 95       	ror	r24
    2878:	08 95       	ret

0000287a <asin>:
    287a:	9f 93       	push	r25
    287c:	9f 77       	andi	r25, 0x7F	; 127
    287e:	ee e3       	ldi	r30, 0x3E	; 62
    2880:	89 37       	cpi	r24, 0x79	; 121
    2882:	9e 07       	cpc	r25, r30
    2884:	28 f4       	brcc	.+10     	; 0x2890 <asin+0x16>
    2886:	e4 e5       	ldi	r30, 0x54	; 84
    2888:	f0 e0       	ldi	r31, 0x00	; 0
    288a:	0e 94 f2 15 	call	0x2be4	; 0x2be4 <__fp_powsodd>
    288e:	0c c0       	rjmp	.+24     	; 0x28a8 <asin+0x2e>
    2890:	0e 94 7e 15 	call	0x2afc	; 0x2afc <__fp_arccos>
    2894:	90 58       	subi	r25, 0x80	; 128
    2896:	a2 ea       	ldi	r26, 0xA2	; 162
    2898:	2a ed       	ldi	r18, 0xDA	; 218
    289a:	3f e0       	ldi	r19, 0x0F	; 15
    289c:	49 ec       	ldi	r20, 0xC9	; 201
    289e:	5f e3       	ldi	r21, 0x3F	; 63
    28a0:	0e 94 e8 13 	call	0x27d0	; 0x27d0 <__addsf3x>
    28a4:	0e 94 14 16 	call	0x2c28	; 0x2c28 <__fp_round>
    28a8:	0f 90       	pop	r0
    28aa:	07 fc       	sbrc	r0, 7
    28ac:	90 58       	subi	r25, 0x80	; 128
    28ae:	08 95       	ret
    28b0:	0e 94 06 16 	call	0x2c0c	; 0x2c0c <__fp_pscA>
    28b4:	60 f0       	brcs	.+24     	; 0x28ce <asin+0x54>
    28b6:	80 e8       	ldi	r24, 0x80	; 128
    28b8:	91 e0       	ldi	r25, 0x01	; 1
    28ba:	09 f4       	brne	.+2      	; 0x28be <asin+0x44>
    28bc:	9e ef       	ldi	r25, 0xFE	; 254
    28be:	0e 94 0d 16 	call	0x2c1a	; 0x2c1a <__fp_pscB>
    28c2:	28 f0       	brcs	.+10     	; 0x28ce <asin+0x54>
    28c4:	40 e8       	ldi	r20, 0x80	; 128
    28c6:	51 e0       	ldi	r21, 0x01	; 1
    28c8:	71 f4       	brne	.+28     	; 0x28e6 <atan2+0x10>
    28ca:	5e ef       	ldi	r21, 0xFE	; 254
    28cc:	0c c0       	rjmp	.+24     	; 0x28e6 <atan2+0x10>
    28ce:	0c 94 c8 15 	jmp	0x2b90	; 0x2b90 <__fp_nan>
    28d2:	0c 94 47 16 	jmp	0x2c8e	; 0x2c8e <__fp_zero>

000028d6 <atan2>:
    28d6:	e9 2f       	mov	r30, r25
    28d8:	e0 78       	andi	r30, 0x80	; 128
    28da:	0e 94 25 16 	call	0x2c4a	; 0x2c4a <__fp_split3>
    28de:	40 f3       	brcs	.-48     	; 0x28b0 <asin+0x36>
    28e0:	09 2e       	mov	r0, r25
    28e2:	05 2a       	or	r0, r21
    28e4:	b1 f3       	breq	.-20     	; 0x28d2 <asin+0x58>
    28e6:	26 17       	cp	r18, r22
    28e8:	37 07       	cpc	r19, r23
    28ea:	48 07       	cpc	r20, r24
    28ec:	59 07       	cpc	r21, r25
    28ee:	38 f0       	brcs	.+14     	; 0x28fe <atan2+0x28>
    28f0:	0e 2e       	mov	r0, r30
    28f2:	07 f8       	bld	r0, 7
    28f4:	e0 25       	eor	r30, r0
    28f6:	69 f0       	breq	.+26     	; 0x2912 <atan2+0x3c>
    28f8:	e0 25       	eor	r30, r0
    28fa:	e0 64       	ori	r30, 0x40	; 64
    28fc:	0a c0       	rjmp	.+20     	; 0x2912 <atan2+0x3c>
    28fe:	ef 63       	ori	r30, 0x3F	; 63
    2900:	07 f8       	bld	r0, 7
    2902:	00 94       	com	r0
    2904:	07 fa       	bst	r0, 7
    2906:	db 01       	movw	r26, r22
    2908:	b9 01       	movw	r22, r18
    290a:	9d 01       	movw	r18, r26
    290c:	dc 01       	movw	r26, r24
    290e:	ca 01       	movw	r24, r20
    2910:	ad 01       	movw	r20, r26
    2912:	ef 93       	push	r30
    2914:	0e 94 e6 14 	call	0x29cc	; 0x29cc <__divsf3_pse>
    2918:	0e 94 14 16 	call	0x2c28	; 0x2c28 <__fp_round>
    291c:	0e 94 9b 14 	call	0x2936	; 0x2936 <atan>
    2920:	5f 91       	pop	r21
    2922:	55 23       	and	r21, r21
    2924:	39 f0       	breq	.+14     	; 0x2934 <atan2+0x5e>
    2926:	2b ed       	ldi	r18, 0xDB	; 219
    2928:	3f e0       	ldi	r19, 0x0F	; 15
    292a:	49 e4       	ldi	r20, 0x49	; 73
    292c:	50 fd       	sbrc	r21, 0
    292e:	49 ec       	ldi	r20, 0xC9	; 201
    2930:	0c 94 d1 13 	jmp	0x27a2	; 0x27a2 <__addsf3>
    2934:	08 95       	ret

00002936 <atan>:
    2936:	df 93       	push	r29
    2938:	dd 27       	eor	r29, r29
    293a:	b9 2f       	mov	r27, r25
    293c:	bf 77       	andi	r27, 0x7F	; 127
    293e:	40 e8       	ldi	r20, 0x80	; 128
    2940:	5f e3       	ldi	r21, 0x3F	; 63
    2942:	16 16       	cp	r1, r22
    2944:	17 06       	cpc	r1, r23
    2946:	48 07       	cpc	r20, r24
    2948:	5b 07       	cpc	r21, r27
    294a:	18 f4       	brcc	.+6      	; 0x2952 <atan+0x1c>
    294c:	d9 2f       	mov	r29, r25
    294e:	0e 94 53 16 	call	0x2ca6	; 0x2ca6 <inverse>
    2952:	9f 93       	push	r25
    2954:	8f 93       	push	r24
    2956:	7f 93       	push	r23
    2958:	6f 93       	push	r22
    295a:	0e 94 0e 17 	call	0x2e1c	; 0x2e1c <square>
    295e:	e8 e6       	ldi	r30, 0x68	; 104
    2960:	f0 e0       	ldi	r31, 0x00	; 0
    2962:	0e 94 cb 15 	call	0x2b96	; 0x2b96 <__fp_powser>
    2966:	0e 94 14 16 	call	0x2c28	; 0x2c28 <__fp_round>
    296a:	2f 91       	pop	r18
    296c:	3f 91       	pop	r19
    296e:	4f 91       	pop	r20
    2970:	5f 91       	pop	r21
    2972:	0e 94 6e 16 	call	0x2cdc	; 0x2cdc <__mulsf3x>
    2976:	dd 23       	and	r29, r29
    2978:	51 f0       	breq	.+20     	; 0x298e <atan+0x58>
    297a:	90 58       	subi	r25, 0x80	; 128
    297c:	a2 ea       	ldi	r26, 0xA2	; 162
    297e:	2a ed       	ldi	r18, 0xDA	; 218
    2980:	3f e0       	ldi	r19, 0x0F	; 15
    2982:	49 ec       	ldi	r20, 0xC9	; 201
    2984:	5f e3       	ldi	r21, 0x3F	; 63
    2986:	d0 78       	andi	r29, 0x80	; 128
    2988:	5d 27       	eor	r21, r29
    298a:	0e 94 e8 13 	call	0x27d0	; 0x27d0 <__addsf3x>
    298e:	df 91       	pop	r29
    2990:	0c 94 14 16 	jmp	0x2c28	; 0x2c28 <__fp_round>

00002994 <__cmpsf2>:
    2994:	0e 94 9e 15 	call	0x2b3c	; 0x2b3c <__fp_cmp>
    2998:	08 f4       	brcc	.+2      	; 0x299c <__cmpsf2+0x8>
    299a:	81 e0       	ldi	r24, 0x01	; 1
    299c:	08 95       	ret

0000299e <__divsf3>:
    299e:	0e 94 e3 14 	call	0x29c6	; 0x29c6 <__divsf3x>
    29a2:	0c 94 14 16 	jmp	0x2c28	; 0x2c28 <__fp_round>
    29a6:	0e 94 0d 16 	call	0x2c1a	; 0x2c1a <__fp_pscB>
    29aa:	58 f0       	brcs	.+22     	; 0x29c2 <__divsf3+0x24>
    29ac:	0e 94 06 16 	call	0x2c0c	; 0x2c0c <__fp_pscA>
    29b0:	40 f0       	brcs	.+16     	; 0x29c2 <__divsf3+0x24>
    29b2:	29 f4       	brne	.+10     	; 0x29be <__divsf3+0x20>
    29b4:	5f 3f       	cpi	r21, 0xFF	; 255
    29b6:	29 f0       	breq	.+10     	; 0x29c2 <__divsf3+0x24>
    29b8:	0c 94 c2 15 	jmp	0x2b84	; 0x2b84 <__fp_inf>
    29bc:	51 11       	cpse	r21, r1
    29be:	0c 94 48 16 	jmp	0x2c90	; 0x2c90 <__fp_szero>
    29c2:	0c 94 c8 15 	jmp	0x2b90	; 0x2b90 <__fp_nan>

000029c6 <__divsf3x>:
    29c6:	0e 94 25 16 	call	0x2c4a	; 0x2c4a <__fp_split3>
    29ca:	68 f3       	brcs	.-38     	; 0x29a6 <__divsf3+0x8>

000029cc <__divsf3_pse>:
    29cc:	99 23       	and	r25, r25
    29ce:	b1 f3       	breq	.-20     	; 0x29bc <__divsf3+0x1e>
    29d0:	55 23       	and	r21, r21
    29d2:	91 f3       	breq	.-28     	; 0x29b8 <__divsf3+0x1a>
    29d4:	95 1b       	sub	r25, r21
    29d6:	55 0b       	sbc	r21, r21
    29d8:	bb 27       	eor	r27, r27
    29da:	aa 27       	eor	r26, r26
    29dc:	62 17       	cp	r22, r18
    29de:	73 07       	cpc	r23, r19
    29e0:	84 07       	cpc	r24, r20
    29e2:	38 f0       	brcs	.+14     	; 0x29f2 <__divsf3_pse+0x26>
    29e4:	9f 5f       	subi	r25, 0xFF	; 255
    29e6:	5f 4f       	sbci	r21, 0xFF	; 255
    29e8:	22 0f       	add	r18, r18
    29ea:	33 1f       	adc	r19, r19
    29ec:	44 1f       	adc	r20, r20
    29ee:	aa 1f       	adc	r26, r26
    29f0:	a9 f3       	breq	.-22     	; 0x29dc <__divsf3_pse+0x10>
    29f2:	35 d0       	rcall	.+106    	; 0x2a5e <__divsf3_pse+0x92>
    29f4:	0e 2e       	mov	r0, r30
    29f6:	3a f0       	brmi	.+14     	; 0x2a06 <__divsf3_pse+0x3a>
    29f8:	e0 e8       	ldi	r30, 0x80	; 128
    29fa:	32 d0       	rcall	.+100    	; 0x2a60 <__divsf3_pse+0x94>
    29fc:	91 50       	subi	r25, 0x01	; 1
    29fe:	50 40       	sbci	r21, 0x00	; 0
    2a00:	e6 95       	lsr	r30
    2a02:	00 1c       	adc	r0, r0
    2a04:	ca f7       	brpl	.-14     	; 0x29f8 <__divsf3_pse+0x2c>
    2a06:	2b d0       	rcall	.+86     	; 0x2a5e <__divsf3_pse+0x92>
    2a08:	fe 2f       	mov	r31, r30
    2a0a:	29 d0       	rcall	.+82     	; 0x2a5e <__divsf3_pse+0x92>
    2a0c:	66 0f       	add	r22, r22
    2a0e:	77 1f       	adc	r23, r23
    2a10:	88 1f       	adc	r24, r24
    2a12:	bb 1f       	adc	r27, r27
    2a14:	26 17       	cp	r18, r22
    2a16:	37 07       	cpc	r19, r23
    2a18:	48 07       	cpc	r20, r24
    2a1a:	ab 07       	cpc	r26, r27
    2a1c:	b0 e8       	ldi	r27, 0x80	; 128
    2a1e:	09 f0       	breq	.+2      	; 0x2a22 <__divsf3_pse+0x56>
    2a20:	bb 0b       	sbc	r27, r27
    2a22:	80 2d       	mov	r24, r0
    2a24:	bf 01       	movw	r22, r30
    2a26:	ff 27       	eor	r31, r31
    2a28:	93 58       	subi	r25, 0x83	; 131
    2a2a:	5f 4f       	sbci	r21, 0xFF	; 255
    2a2c:	3a f0       	brmi	.+14     	; 0x2a3c <__divsf3_pse+0x70>
    2a2e:	9e 3f       	cpi	r25, 0xFE	; 254
    2a30:	51 05       	cpc	r21, r1
    2a32:	78 f0       	brcs	.+30     	; 0x2a52 <__divsf3_pse+0x86>
    2a34:	0c 94 c2 15 	jmp	0x2b84	; 0x2b84 <__fp_inf>
    2a38:	0c 94 48 16 	jmp	0x2c90	; 0x2c90 <__fp_szero>
    2a3c:	5f 3f       	cpi	r21, 0xFF	; 255
    2a3e:	e4 f3       	brlt	.-8      	; 0x2a38 <__divsf3_pse+0x6c>
    2a40:	98 3e       	cpi	r25, 0xE8	; 232
    2a42:	d4 f3       	brlt	.-12     	; 0x2a38 <__divsf3_pse+0x6c>
    2a44:	86 95       	lsr	r24
    2a46:	77 95       	ror	r23
    2a48:	67 95       	ror	r22
    2a4a:	b7 95       	ror	r27
    2a4c:	f7 95       	ror	r31
    2a4e:	9f 5f       	subi	r25, 0xFF	; 255
    2a50:	c9 f7       	brne	.-14     	; 0x2a44 <__divsf3_pse+0x78>
    2a52:	88 0f       	add	r24, r24
    2a54:	91 1d       	adc	r25, r1
    2a56:	96 95       	lsr	r25
    2a58:	87 95       	ror	r24
    2a5a:	97 f9       	bld	r25, 7
    2a5c:	08 95       	ret
    2a5e:	e1 e0       	ldi	r30, 0x01	; 1
    2a60:	66 0f       	add	r22, r22
    2a62:	77 1f       	adc	r23, r23
    2a64:	88 1f       	adc	r24, r24
    2a66:	bb 1f       	adc	r27, r27
    2a68:	62 17       	cp	r22, r18
    2a6a:	73 07       	cpc	r23, r19
    2a6c:	84 07       	cpc	r24, r20
    2a6e:	ba 07       	cpc	r27, r26
    2a70:	20 f0       	brcs	.+8      	; 0x2a7a <__divsf3_pse+0xae>
    2a72:	62 1b       	sub	r22, r18
    2a74:	73 0b       	sbc	r23, r19
    2a76:	84 0b       	sbc	r24, r20
    2a78:	ba 0b       	sbc	r27, r26
    2a7a:	ee 1f       	adc	r30, r30
    2a7c:	88 f7       	brcc	.-30     	; 0x2a60 <__divsf3_pse+0x94>
    2a7e:	e0 95       	com	r30
    2a80:	08 95       	ret

00002a82 <__floatunsisf>:
    2a82:	e8 94       	clt
    2a84:	09 c0       	rjmp	.+18     	; 0x2a98 <__floatsisf+0x12>

00002a86 <__floatsisf>:
    2a86:	97 fb       	bst	r25, 7
    2a88:	3e f4       	brtc	.+14     	; 0x2a98 <__floatsisf+0x12>
    2a8a:	90 95       	com	r25
    2a8c:	80 95       	com	r24
    2a8e:	70 95       	com	r23
    2a90:	61 95       	neg	r22
    2a92:	7f 4f       	sbci	r23, 0xFF	; 255
    2a94:	8f 4f       	sbci	r24, 0xFF	; 255
    2a96:	9f 4f       	sbci	r25, 0xFF	; 255
    2a98:	99 23       	and	r25, r25
    2a9a:	a9 f0       	breq	.+42     	; 0x2ac6 <__floatsisf+0x40>
    2a9c:	f9 2f       	mov	r31, r25
    2a9e:	96 e9       	ldi	r25, 0x96	; 150
    2aa0:	bb 27       	eor	r27, r27
    2aa2:	93 95       	inc	r25
    2aa4:	f6 95       	lsr	r31
    2aa6:	87 95       	ror	r24
    2aa8:	77 95       	ror	r23
    2aaa:	67 95       	ror	r22
    2aac:	b7 95       	ror	r27
    2aae:	f1 11       	cpse	r31, r1
    2ab0:	f8 cf       	rjmp	.-16     	; 0x2aa2 <__floatsisf+0x1c>
    2ab2:	fa f4       	brpl	.+62     	; 0x2af2 <__floatsisf+0x6c>
    2ab4:	bb 0f       	add	r27, r27
    2ab6:	11 f4       	brne	.+4      	; 0x2abc <__floatsisf+0x36>
    2ab8:	60 ff       	sbrs	r22, 0
    2aba:	1b c0       	rjmp	.+54     	; 0x2af2 <__floatsisf+0x6c>
    2abc:	6f 5f       	subi	r22, 0xFF	; 255
    2abe:	7f 4f       	sbci	r23, 0xFF	; 255
    2ac0:	8f 4f       	sbci	r24, 0xFF	; 255
    2ac2:	9f 4f       	sbci	r25, 0xFF	; 255
    2ac4:	16 c0       	rjmp	.+44     	; 0x2af2 <__floatsisf+0x6c>
    2ac6:	88 23       	and	r24, r24
    2ac8:	11 f0       	breq	.+4      	; 0x2ace <__floatsisf+0x48>
    2aca:	96 e9       	ldi	r25, 0x96	; 150
    2acc:	11 c0       	rjmp	.+34     	; 0x2af0 <__floatsisf+0x6a>
    2ace:	77 23       	and	r23, r23
    2ad0:	21 f0       	breq	.+8      	; 0x2ada <__floatsisf+0x54>
    2ad2:	9e e8       	ldi	r25, 0x8E	; 142
    2ad4:	87 2f       	mov	r24, r23
    2ad6:	76 2f       	mov	r23, r22
    2ad8:	05 c0       	rjmp	.+10     	; 0x2ae4 <__floatsisf+0x5e>
    2ada:	66 23       	and	r22, r22
    2adc:	71 f0       	breq	.+28     	; 0x2afa <__floatsisf+0x74>
    2ade:	96 e8       	ldi	r25, 0x86	; 134
    2ae0:	86 2f       	mov	r24, r22
    2ae2:	70 e0       	ldi	r23, 0x00	; 0
    2ae4:	60 e0       	ldi	r22, 0x00	; 0
    2ae6:	2a f0       	brmi	.+10     	; 0x2af2 <__floatsisf+0x6c>
    2ae8:	9a 95       	dec	r25
    2aea:	66 0f       	add	r22, r22
    2aec:	77 1f       	adc	r23, r23
    2aee:	88 1f       	adc	r24, r24
    2af0:	da f7       	brpl	.-10     	; 0x2ae8 <__floatsisf+0x62>
    2af2:	88 0f       	add	r24, r24
    2af4:	96 95       	lsr	r25
    2af6:	87 95       	ror	r24
    2af8:	97 f9       	bld	r25, 7
    2afa:	08 95       	ret

00002afc <__fp_arccos>:
    2afc:	df 93       	push	r29
    2afe:	cf 93       	push	r28
    2b00:	1f 93       	push	r17
    2b02:	0f 93       	push	r16
    2b04:	8b 01       	movw	r16, r22
    2b06:	ec 01       	movw	r28, r24
    2b08:	e5 e9       	ldi	r30, 0x95	; 149
    2b0a:	f0 e0       	ldi	r31, 0x00	; 0
    2b0c:	0e 94 cb 15 	call	0x2b96	; 0x2b96 <__fp_powser>
    2b10:	0e 94 14 16 	call	0x2c28	; 0x2c28 <__fp_round>
    2b14:	98 01       	movw	r18, r16
    2b16:	ae 01       	movw	r20, r28
    2b18:	8b 01       	movw	r16, r22
    2b1a:	ec 01       	movw	r28, r24
    2b1c:	60 e0       	ldi	r22, 0x00	; 0
    2b1e:	70 e0       	ldi	r23, 0x00	; 0
    2b20:	80 e8       	ldi	r24, 0x80	; 128
    2b22:	9f e3       	ldi	r25, 0x3F	; 63
    2b24:	0e 94 d0 13 	call	0x27a0	; 0x27a0 <__subsf3>
    2b28:	0e 94 ce 16 	call	0x2d9c	; 0x2d9c <sqrt>
    2b2c:	98 01       	movw	r18, r16
    2b2e:	ae 01       	movw	r20, r28
    2b30:	0f 91       	pop	r16
    2b32:	1f 91       	pop	r17
    2b34:	cf 91       	pop	r28
    2b36:	df 91       	pop	r29
    2b38:	0c 94 6e 16 	jmp	0x2cdc	; 0x2cdc <__mulsf3x>

00002b3c <__fp_cmp>:
    2b3c:	99 0f       	add	r25, r25
    2b3e:	00 08       	sbc	r0, r0
    2b40:	55 0f       	add	r21, r21
    2b42:	aa 0b       	sbc	r26, r26
    2b44:	e0 e8       	ldi	r30, 0x80	; 128
    2b46:	fe ef       	ldi	r31, 0xFE	; 254
    2b48:	16 16       	cp	r1, r22
    2b4a:	17 06       	cpc	r1, r23
    2b4c:	e8 07       	cpc	r30, r24
    2b4e:	f9 07       	cpc	r31, r25
    2b50:	c0 f0       	brcs	.+48     	; 0x2b82 <__fp_cmp+0x46>
    2b52:	12 16       	cp	r1, r18
    2b54:	13 06       	cpc	r1, r19
    2b56:	e4 07       	cpc	r30, r20
    2b58:	f5 07       	cpc	r31, r21
    2b5a:	98 f0       	brcs	.+38     	; 0x2b82 <__fp_cmp+0x46>
    2b5c:	62 1b       	sub	r22, r18
    2b5e:	73 0b       	sbc	r23, r19
    2b60:	84 0b       	sbc	r24, r20
    2b62:	95 0b       	sbc	r25, r21
    2b64:	39 f4       	brne	.+14     	; 0x2b74 <__fp_cmp+0x38>
    2b66:	0a 26       	eor	r0, r26
    2b68:	61 f0       	breq	.+24     	; 0x2b82 <__fp_cmp+0x46>
    2b6a:	23 2b       	or	r18, r19
    2b6c:	24 2b       	or	r18, r20
    2b6e:	25 2b       	or	r18, r21
    2b70:	21 f4       	brne	.+8      	; 0x2b7a <__fp_cmp+0x3e>
    2b72:	08 95       	ret
    2b74:	0a 26       	eor	r0, r26
    2b76:	09 f4       	brne	.+2      	; 0x2b7a <__fp_cmp+0x3e>
    2b78:	a1 40       	sbci	r26, 0x01	; 1
    2b7a:	a6 95       	lsr	r26
    2b7c:	8f ef       	ldi	r24, 0xFF	; 255
    2b7e:	81 1d       	adc	r24, r1
    2b80:	81 1d       	adc	r24, r1
    2b82:	08 95       	ret

00002b84 <__fp_inf>:
    2b84:	97 f9       	bld	r25, 7
    2b86:	9f 67       	ori	r25, 0x7F	; 127
    2b88:	80 e8       	ldi	r24, 0x80	; 128
    2b8a:	70 e0       	ldi	r23, 0x00	; 0
    2b8c:	60 e0       	ldi	r22, 0x00	; 0
    2b8e:	08 95       	ret

00002b90 <__fp_nan>:
    2b90:	9f ef       	ldi	r25, 0xFF	; 255
    2b92:	80 ec       	ldi	r24, 0xC0	; 192
    2b94:	08 95       	ret

00002b96 <__fp_powser>:
    2b96:	df 93       	push	r29
    2b98:	cf 93       	push	r28
    2b9a:	1f 93       	push	r17
    2b9c:	0f 93       	push	r16
    2b9e:	ff 92       	push	r15
    2ba0:	ef 92       	push	r14
    2ba2:	df 92       	push	r13
    2ba4:	7b 01       	movw	r14, r22
    2ba6:	8c 01       	movw	r16, r24
    2ba8:	68 94       	set
    2baa:	06 c0       	rjmp	.+12     	; 0x2bb8 <__fp_powser+0x22>
    2bac:	da 2e       	mov	r13, r26
    2bae:	ef 01       	movw	r28, r30
    2bb0:	0e 94 6e 16 	call	0x2cdc	; 0x2cdc <__mulsf3x>
    2bb4:	fe 01       	movw	r30, r28
    2bb6:	e8 94       	clt
    2bb8:	a5 91       	lpm	r26, Z+
    2bba:	25 91       	lpm	r18, Z+
    2bbc:	35 91       	lpm	r19, Z+
    2bbe:	45 91       	lpm	r20, Z+
    2bc0:	55 91       	lpm	r21, Z+
    2bc2:	a6 f3       	brts	.-24     	; 0x2bac <__fp_powser+0x16>
    2bc4:	ef 01       	movw	r28, r30
    2bc6:	0e 94 e8 13 	call	0x27d0	; 0x27d0 <__addsf3x>
    2bca:	fe 01       	movw	r30, r28
    2bcc:	97 01       	movw	r18, r14
    2bce:	a8 01       	movw	r20, r16
    2bd0:	da 94       	dec	r13
    2bd2:	69 f7       	brne	.-38     	; 0x2bae <__fp_powser+0x18>
    2bd4:	df 90       	pop	r13
    2bd6:	ef 90       	pop	r14
    2bd8:	ff 90       	pop	r15
    2bda:	0f 91       	pop	r16
    2bdc:	1f 91       	pop	r17
    2bde:	cf 91       	pop	r28
    2be0:	df 91       	pop	r29
    2be2:	08 95       	ret

00002be4 <__fp_powsodd>:
    2be4:	9f 93       	push	r25
    2be6:	8f 93       	push	r24
    2be8:	7f 93       	push	r23
    2bea:	6f 93       	push	r22
    2bec:	ff 93       	push	r31
    2bee:	ef 93       	push	r30
    2bf0:	9b 01       	movw	r18, r22
    2bf2:	ac 01       	movw	r20, r24
    2bf4:	0e 94 5b 16 	call	0x2cb6	; 0x2cb6 <__mulsf3>
    2bf8:	ef 91       	pop	r30
    2bfa:	ff 91       	pop	r31
    2bfc:	0e 94 cb 15 	call	0x2b96	; 0x2b96 <__fp_powser>
    2c00:	2f 91       	pop	r18
    2c02:	3f 91       	pop	r19
    2c04:	4f 91       	pop	r20
    2c06:	5f 91       	pop	r21
    2c08:	0c 94 5b 16 	jmp	0x2cb6	; 0x2cb6 <__mulsf3>

00002c0c <__fp_pscA>:
    2c0c:	00 24       	eor	r0, r0
    2c0e:	0a 94       	dec	r0
    2c10:	16 16       	cp	r1, r22
    2c12:	17 06       	cpc	r1, r23
    2c14:	18 06       	cpc	r1, r24
    2c16:	09 06       	cpc	r0, r25
    2c18:	08 95       	ret

00002c1a <__fp_pscB>:
    2c1a:	00 24       	eor	r0, r0
    2c1c:	0a 94       	dec	r0
    2c1e:	12 16       	cp	r1, r18
    2c20:	13 06       	cpc	r1, r19
    2c22:	14 06       	cpc	r1, r20
    2c24:	05 06       	cpc	r0, r21
    2c26:	08 95       	ret

00002c28 <__fp_round>:
    2c28:	09 2e       	mov	r0, r25
    2c2a:	03 94       	inc	r0
    2c2c:	00 0c       	add	r0, r0
    2c2e:	11 f4       	brne	.+4      	; 0x2c34 <__fp_round+0xc>
    2c30:	88 23       	and	r24, r24
    2c32:	52 f0       	brmi	.+20     	; 0x2c48 <__fp_round+0x20>
    2c34:	bb 0f       	add	r27, r27
    2c36:	40 f4       	brcc	.+16     	; 0x2c48 <__fp_round+0x20>
    2c38:	bf 2b       	or	r27, r31
    2c3a:	11 f4       	brne	.+4      	; 0x2c40 <__fp_round+0x18>
    2c3c:	60 ff       	sbrs	r22, 0
    2c3e:	04 c0       	rjmp	.+8      	; 0x2c48 <__fp_round+0x20>
    2c40:	6f 5f       	subi	r22, 0xFF	; 255
    2c42:	7f 4f       	sbci	r23, 0xFF	; 255
    2c44:	8f 4f       	sbci	r24, 0xFF	; 255
    2c46:	9f 4f       	sbci	r25, 0xFF	; 255
    2c48:	08 95       	ret

00002c4a <__fp_split3>:
    2c4a:	57 fd       	sbrc	r21, 7
    2c4c:	90 58       	subi	r25, 0x80	; 128
    2c4e:	44 0f       	add	r20, r20
    2c50:	55 1f       	adc	r21, r21
    2c52:	59 f0       	breq	.+22     	; 0x2c6a <__fp_splitA+0x10>
    2c54:	5f 3f       	cpi	r21, 0xFF	; 255
    2c56:	71 f0       	breq	.+28     	; 0x2c74 <__fp_splitA+0x1a>
    2c58:	47 95       	ror	r20

00002c5a <__fp_splitA>:
    2c5a:	88 0f       	add	r24, r24
    2c5c:	97 fb       	bst	r25, 7
    2c5e:	99 1f       	adc	r25, r25
    2c60:	61 f0       	breq	.+24     	; 0x2c7a <__fp_splitA+0x20>
    2c62:	9f 3f       	cpi	r25, 0xFF	; 255
    2c64:	79 f0       	breq	.+30     	; 0x2c84 <__fp_splitA+0x2a>
    2c66:	87 95       	ror	r24
    2c68:	08 95       	ret
    2c6a:	12 16       	cp	r1, r18
    2c6c:	13 06       	cpc	r1, r19
    2c6e:	14 06       	cpc	r1, r20
    2c70:	55 1f       	adc	r21, r21
    2c72:	f2 cf       	rjmp	.-28     	; 0x2c58 <__fp_split3+0xe>
    2c74:	46 95       	lsr	r20
    2c76:	f1 df       	rcall	.-30     	; 0x2c5a <__fp_splitA>
    2c78:	08 c0       	rjmp	.+16     	; 0x2c8a <__fp_splitA+0x30>
    2c7a:	16 16       	cp	r1, r22
    2c7c:	17 06       	cpc	r1, r23
    2c7e:	18 06       	cpc	r1, r24
    2c80:	99 1f       	adc	r25, r25
    2c82:	f1 cf       	rjmp	.-30     	; 0x2c66 <__fp_splitA+0xc>
    2c84:	86 95       	lsr	r24
    2c86:	71 05       	cpc	r23, r1
    2c88:	61 05       	cpc	r22, r1
    2c8a:	08 94       	sec
    2c8c:	08 95       	ret

00002c8e <__fp_zero>:
    2c8e:	e8 94       	clt

00002c90 <__fp_szero>:
    2c90:	bb 27       	eor	r27, r27
    2c92:	66 27       	eor	r22, r22
    2c94:	77 27       	eor	r23, r23
    2c96:	cb 01       	movw	r24, r22
    2c98:	97 f9       	bld	r25, 7
    2c9a:	08 95       	ret

00002c9c <__gesf2>:
    2c9c:	0e 94 9e 15 	call	0x2b3c	; 0x2b3c <__fp_cmp>
    2ca0:	08 f4       	brcc	.+2      	; 0x2ca4 <__gesf2+0x8>
    2ca2:	8f ef       	ldi	r24, 0xFF	; 255
    2ca4:	08 95       	ret

00002ca6 <inverse>:
    2ca6:	9b 01       	movw	r18, r22
    2ca8:	ac 01       	movw	r20, r24
    2caa:	60 e0       	ldi	r22, 0x00	; 0
    2cac:	70 e0       	ldi	r23, 0x00	; 0
    2cae:	80 e8       	ldi	r24, 0x80	; 128
    2cb0:	9f e3       	ldi	r25, 0x3F	; 63
    2cb2:	0c 94 cf 14 	jmp	0x299e	; 0x299e <__divsf3>

00002cb6 <__mulsf3>:
    2cb6:	0e 94 6e 16 	call	0x2cdc	; 0x2cdc <__mulsf3x>
    2cba:	0c 94 14 16 	jmp	0x2c28	; 0x2c28 <__fp_round>
    2cbe:	0e 94 06 16 	call	0x2c0c	; 0x2c0c <__fp_pscA>
    2cc2:	38 f0       	brcs	.+14     	; 0x2cd2 <__mulsf3+0x1c>
    2cc4:	0e 94 0d 16 	call	0x2c1a	; 0x2c1a <__fp_pscB>
    2cc8:	20 f0       	brcs	.+8      	; 0x2cd2 <__mulsf3+0x1c>
    2cca:	95 23       	and	r25, r21
    2ccc:	11 f0       	breq	.+4      	; 0x2cd2 <__mulsf3+0x1c>
    2cce:	0c 94 c2 15 	jmp	0x2b84	; 0x2b84 <__fp_inf>
    2cd2:	0c 94 c8 15 	jmp	0x2b90	; 0x2b90 <__fp_nan>
    2cd6:	11 24       	eor	r1, r1
    2cd8:	0c 94 48 16 	jmp	0x2c90	; 0x2c90 <__fp_szero>

00002cdc <__mulsf3x>:
    2cdc:	0e 94 25 16 	call	0x2c4a	; 0x2c4a <__fp_split3>
    2ce0:	70 f3       	brcs	.-36     	; 0x2cbe <__mulsf3+0x8>

00002ce2 <__mulsf3_pse>:
    2ce2:	95 9f       	mul	r25, r21
    2ce4:	c1 f3       	breq	.-16     	; 0x2cd6 <__mulsf3+0x20>
    2ce6:	95 0f       	add	r25, r21
    2ce8:	50 e0       	ldi	r21, 0x00	; 0
    2cea:	55 1f       	adc	r21, r21
    2cec:	62 9f       	mul	r22, r18
    2cee:	f0 01       	movw	r30, r0
    2cf0:	72 9f       	mul	r23, r18
    2cf2:	bb 27       	eor	r27, r27
    2cf4:	f0 0d       	add	r31, r0
    2cf6:	b1 1d       	adc	r27, r1
    2cf8:	63 9f       	mul	r22, r19
    2cfa:	aa 27       	eor	r26, r26
    2cfc:	f0 0d       	add	r31, r0
    2cfe:	b1 1d       	adc	r27, r1
    2d00:	aa 1f       	adc	r26, r26
    2d02:	64 9f       	mul	r22, r20
    2d04:	66 27       	eor	r22, r22
    2d06:	b0 0d       	add	r27, r0
    2d08:	a1 1d       	adc	r26, r1
    2d0a:	66 1f       	adc	r22, r22
    2d0c:	82 9f       	mul	r24, r18
    2d0e:	22 27       	eor	r18, r18
    2d10:	b0 0d       	add	r27, r0
    2d12:	a1 1d       	adc	r26, r1
    2d14:	62 1f       	adc	r22, r18
    2d16:	73 9f       	mul	r23, r19
    2d18:	b0 0d       	add	r27, r0
    2d1a:	a1 1d       	adc	r26, r1
    2d1c:	62 1f       	adc	r22, r18
    2d1e:	83 9f       	mul	r24, r19
    2d20:	a0 0d       	add	r26, r0
    2d22:	61 1d       	adc	r22, r1
    2d24:	22 1f       	adc	r18, r18
    2d26:	74 9f       	mul	r23, r20
    2d28:	33 27       	eor	r19, r19
    2d2a:	a0 0d       	add	r26, r0
    2d2c:	61 1d       	adc	r22, r1
    2d2e:	23 1f       	adc	r18, r19
    2d30:	84 9f       	mul	r24, r20
    2d32:	60 0d       	add	r22, r0
    2d34:	21 1d       	adc	r18, r1
    2d36:	82 2f       	mov	r24, r18
    2d38:	76 2f       	mov	r23, r22
    2d3a:	6a 2f       	mov	r22, r26
    2d3c:	11 24       	eor	r1, r1
    2d3e:	9f 57       	subi	r25, 0x7F	; 127
    2d40:	50 40       	sbci	r21, 0x00	; 0
    2d42:	9a f0       	brmi	.+38     	; 0x2d6a <__mulsf3_pse+0x88>
    2d44:	f1 f0       	breq	.+60     	; 0x2d82 <__mulsf3_pse+0xa0>
    2d46:	88 23       	and	r24, r24
    2d48:	4a f0       	brmi	.+18     	; 0x2d5c <__mulsf3_pse+0x7a>
    2d4a:	ee 0f       	add	r30, r30
    2d4c:	ff 1f       	adc	r31, r31
    2d4e:	bb 1f       	adc	r27, r27
    2d50:	66 1f       	adc	r22, r22
    2d52:	77 1f       	adc	r23, r23
    2d54:	88 1f       	adc	r24, r24
    2d56:	91 50       	subi	r25, 0x01	; 1
    2d58:	50 40       	sbci	r21, 0x00	; 0
    2d5a:	a9 f7       	brne	.-22     	; 0x2d46 <__mulsf3_pse+0x64>
    2d5c:	9e 3f       	cpi	r25, 0xFE	; 254
    2d5e:	51 05       	cpc	r21, r1
    2d60:	80 f0       	brcs	.+32     	; 0x2d82 <__mulsf3_pse+0xa0>
    2d62:	0c 94 c2 15 	jmp	0x2b84	; 0x2b84 <__fp_inf>
    2d66:	0c 94 48 16 	jmp	0x2c90	; 0x2c90 <__fp_szero>
    2d6a:	5f 3f       	cpi	r21, 0xFF	; 255
    2d6c:	e4 f3       	brlt	.-8      	; 0x2d66 <__mulsf3_pse+0x84>
    2d6e:	98 3e       	cpi	r25, 0xE8	; 232
    2d70:	d4 f3       	brlt	.-12     	; 0x2d66 <__mulsf3_pse+0x84>
    2d72:	86 95       	lsr	r24
    2d74:	77 95       	ror	r23
    2d76:	67 95       	ror	r22
    2d78:	b7 95       	ror	r27
    2d7a:	f7 95       	ror	r31
    2d7c:	e7 95       	ror	r30
    2d7e:	9f 5f       	subi	r25, 0xFF	; 255
    2d80:	c1 f7       	brne	.-16     	; 0x2d72 <__mulsf3_pse+0x90>
    2d82:	fe 2b       	or	r31, r30
    2d84:	88 0f       	add	r24, r24
    2d86:	91 1d       	adc	r25, r1
    2d88:	96 95       	lsr	r25
    2d8a:	87 95       	ror	r24
    2d8c:	97 f9       	bld	r25, 7
    2d8e:	08 95       	ret
    2d90:	19 f4       	brne	.+6      	; 0x2d98 <__mulsf3_pse+0xb6>
    2d92:	16 f4       	brtc	.+4      	; 0x2d98 <__mulsf3_pse+0xb6>
    2d94:	0c 94 c8 15 	jmp	0x2b90	; 0x2b90 <__fp_nan>
    2d98:	0c 94 12 17 	jmp	0x2e24	; 0x2e24 <__fp_mpack>

00002d9c <sqrt>:
    2d9c:	0e 94 2d 16 	call	0x2c5a	; 0x2c5a <__fp_splitA>
    2da0:	b8 f3       	brcs	.-18     	; 0x2d90 <__mulsf3_pse+0xae>
    2da2:	99 23       	and	r25, r25
    2da4:	c9 f3       	breq	.-14     	; 0x2d98 <__mulsf3_pse+0xb6>
    2da6:	b6 f3       	brts	.-20     	; 0x2d94 <__mulsf3_pse+0xb2>
    2da8:	9f 57       	subi	r25, 0x7F	; 127
    2daa:	55 0b       	sbc	r21, r21
    2dac:	87 ff       	sbrs	r24, 7
    2dae:	0e 94 20 17 	call	0x2e40	; 0x2e40 <__fp_norm2>
    2db2:	00 24       	eor	r0, r0
    2db4:	a0 e6       	ldi	r26, 0x60	; 96
    2db6:	40 ea       	ldi	r20, 0xA0	; 160
    2db8:	90 01       	movw	r18, r0
    2dba:	80 58       	subi	r24, 0x80	; 128
    2dbc:	56 95       	lsr	r21
    2dbe:	97 95       	ror	r25
    2dc0:	28 f4       	brcc	.+10     	; 0x2dcc <sqrt+0x30>
    2dc2:	80 5c       	subi	r24, 0xC0	; 192
    2dc4:	66 0f       	add	r22, r22
    2dc6:	77 1f       	adc	r23, r23
    2dc8:	88 1f       	adc	r24, r24
    2dca:	20 f0       	brcs	.+8      	; 0x2dd4 <sqrt+0x38>
    2dcc:	26 17       	cp	r18, r22
    2dce:	37 07       	cpc	r19, r23
    2dd0:	48 07       	cpc	r20, r24
    2dd2:	30 f4       	brcc	.+12     	; 0x2de0 <sqrt+0x44>
    2dd4:	62 1b       	sub	r22, r18
    2dd6:	73 0b       	sbc	r23, r19
    2dd8:	84 0b       	sbc	r24, r20
    2dda:	20 29       	or	r18, r0
    2ddc:	31 29       	or	r19, r1
    2dde:	4a 2b       	or	r20, r26
    2de0:	a6 95       	lsr	r26
    2de2:	17 94       	ror	r1
    2de4:	07 94       	ror	r0
    2de6:	20 25       	eor	r18, r0
    2de8:	31 25       	eor	r19, r1
    2dea:	4a 27       	eor	r20, r26
    2dec:	58 f7       	brcc	.-42     	; 0x2dc4 <sqrt+0x28>
    2dee:	66 0f       	add	r22, r22
    2df0:	77 1f       	adc	r23, r23
    2df2:	88 1f       	adc	r24, r24
    2df4:	20 f0       	brcs	.+8      	; 0x2dfe <sqrt+0x62>
    2df6:	26 17       	cp	r18, r22
    2df8:	37 07       	cpc	r19, r23
    2dfa:	48 07       	cpc	r20, r24
    2dfc:	30 f4       	brcc	.+12     	; 0x2e0a <sqrt+0x6e>
    2dfe:	62 0b       	sbc	r22, r18
    2e00:	73 0b       	sbc	r23, r19
    2e02:	84 0b       	sbc	r24, r20
    2e04:	20 0d       	add	r18, r0
    2e06:	31 1d       	adc	r19, r1
    2e08:	41 1d       	adc	r20, r1
    2e0a:	a0 95       	com	r26
    2e0c:	81 f7       	brne	.-32     	; 0x2dee <sqrt+0x52>
    2e0e:	b9 01       	movw	r22, r18
    2e10:	84 2f       	mov	r24, r20
    2e12:	91 58       	subi	r25, 0x81	; 129
    2e14:	88 0f       	add	r24, r24
    2e16:	96 95       	lsr	r25
    2e18:	87 95       	ror	r24
    2e1a:	08 95       	ret

00002e1c <square>:
    2e1c:	9b 01       	movw	r18, r22
    2e1e:	ac 01       	movw	r20, r24
    2e20:	0c 94 5b 16 	jmp	0x2cb6	; 0x2cb6 <__mulsf3>

00002e24 <__fp_mpack>:
    2e24:	9f 3f       	cpi	r25, 0xFF	; 255
    2e26:	31 f0       	breq	.+12     	; 0x2e34 <__fp_mpack_finite+0xc>

00002e28 <__fp_mpack_finite>:
    2e28:	91 50       	subi	r25, 0x01	; 1
    2e2a:	20 f4       	brcc	.+8      	; 0x2e34 <__fp_mpack_finite+0xc>
    2e2c:	87 95       	ror	r24
    2e2e:	77 95       	ror	r23
    2e30:	67 95       	ror	r22
    2e32:	b7 95       	ror	r27
    2e34:	88 0f       	add	r24, r24
    2e36:	91 1d       	adc	r25, r1
    2e38:	96 95       	lsr	r25
    2e3a:	87 95       	ror	r24
    2e3c:	97 f9       	bld	r25, 7
    2e3e:	08 95       	ret

00002e40 <__fp_norm2>:
    2e40:	91 50       	subi	r25, 0x01	; 1
    2e42:	50 40       	sbci	r21, 0x00	; 0
    2e44:	66 0f       	add	r22, r22
    2e46:	77 1f       	adc	r23, r23
    2e48:	88 1f       	adc	r24, r24
    2e4a:	d2 f7       	brpl	.-12     	; 0x2e40 <__fp_norm2>
    2e4c:	08 95       	ret

00002e4e <__udivmodsi4>:
    2e4e:	a1 e2       	ldi	r26, 0x21	; 33
    2e50:	1a 2e       	mov	r1, r26
    2e52:	aa 1b       	sub	r26, r26
    2e54:	bb 1b       	sub	r27, r27
    2e56:	fd 01       	movw	r30, r26
    2e58:	0d c0       	rjmp	.+26     	; 0x2e74 <__udivmodsi4_ep>

00002e5a <__udivmodsi4_loop>:
    2e5a:	aa 1f       	adc	r26, r26
    2e5c:	bb 1f       	adc	r27, r27
    2e5e:	ee 1f       	adc	r30, r30
    2e60:	ff 1f       	adc	r31, r31
    2e62:	a2 17       	cp	r26, r18
    2e64:	b3 07       	cpc	r27, r19
    2e66:	e4 07       	cpc	r30, r20
    2e68:	f5 07       	cpc	r31, r21
    2e6a:	20 f0       	brcs	.+8      	; 0x2e74 <__udivmodsi4_ep>
    2e6c:	a2 1b       	sub	r26, r18
    2e6e:	b3 0b       	sbc	r27, r19
    2e70:	e4 0b       	sbc	r30, r20
    2e72:	f5 0b       	sbc	r31, r21

00002e74 <__udivmodsi4_ep>:
    2e74:	66 1f       	adc	r22, r22
    2e76:	77 1f       	adc	r23, r23
    2e78:	88 1f       	adc	r24, r24
    2e7a:	99 1f       	adc	r25, r25
    2e7c:	1a 94       	dec	r1
    2e7e:	69 f7       	brne	.-38     	; 0x2e5a <__udivmodsi4_loop>
    2e80:	60 95       	com	r22
    2e82:	70 95       	com	r23
    2e84:	80 95       	com	r24
    2e86:	90 95       	com	r25
    2e88:	9b 01       	movw	r18, r22
    2e8a:	ac 01       	movw	r20, r24
    2e8c:	bd 01       	movw	r22, r26
    2e8e:	cf 01       	movw	r24, r30
    2e90:	08 95       	ret

00002e92 <_exit>:
    2e92:	f8 94       	cli

00002e94 <__stop_program>:
    2e94:	ff cf       	rjmp	.-2      	; 0x2e94 <__stop_program>
